GAS LISTING /tmp/ccOpXWZF.s 			page 1


   1               		.file	"test.c"
   2               	__SP_H__ = 0x3e
   3               	__SP_L__ = 0x3d
   4               	__SREG__ = 0x3f
   5               	__tmp_reg__ = 0
   6               	__zero_reg__ = 1
   9               		.text
  10               	.Ltext0:
 104               	.global	delay_ms
 106               	delay_ms:
 107               		.stabd	46,0,0
   1:test.c        **** #include <avr/io.h>
   2:test.c        **** #include <avr/interrupt.h>
   3:test.c        **** #include <avr/sleep.h>
   4:test.c        **** #include <util/delay.h>
   5:test.c        **** 
   6:test.c        **** void delay_ms(uint32_t time) {
 109               	.LM0:
 110               	.LFBB1:
 111 0000 0F93      		push r16
 112 0002 1F93      		push r17
 113               	/* prologue: function */
 114               	/* frame size = 0 */
 115               	/* stack size = 2 */
 116               	.L__stack_usage = 2
   7:test.c        ****   uint32_t i;
   8:test.c        ****   for (i = 0; i < time; i++) {
 118               	.LM1:
 119 0004 00E0      		ldi r16,0
 120 0006 10E0      		ldi r17,0
 121 0008 9801      		movw r18,r16
 122               	.L2:
 124               	.LM2:
 125 000a 0617      		cp r16,r22
 126 000c 1707      		cpc r17,r23
 127 000e 2807      		cpc r18,r24
 128 0010 3907      		cpc r19,r25
 129 0012 01F0      		breq .L5
 130               	.LBB6:
 131               	.LBB7:
 133               	.Ltext1:
   1:/usr/lib/avr/include/util/delay.h **** /* Copyright (c) 2002, Marek Michalkiewicz
   2:/usr/lib/avr/include/util/delay.h ****    Copyright (c) 2004,2005,2007 Joerg Wunsch
   3:/usr/lib/avr/include/util/delay.h ****    Copyright (c) 2007  Florin-Viorel Petrov
   4:/usr/lib/avr/include/util/delay.h ****    All rights reserved.
   5:/usr/lib/avr/include/util/delay.h **** 
   6:/usr/lib/avr/include/util/delay.h ****    Redistribution and use in source and binary forms, with or without
   7:/usr/lib/avr/include/util/delay.h ****    modification, are permitted provided that the following conditions are met:
   8:/usr/lib/avr/include/util/delay.h **** 
   9:/usr/lib/avr/include/util/delay.h ****    * Redistributions of source code must retain the above copyright
  10:/usr/lib/avr/include/util/delay.h ****      notice, this list of conditions and the following disclaimer.
  11:/usr/lib/avr/include/util/delay.h **** 
  12:/usr/lib/avr/include/util/delay.h ****    * Redistributions in binary form must reproduce the above copyright
  13:/usr/lib/avr/include/util/delay.h ****      notice, this list of conditions and the following disclaimer in
  14:/usr/lib/avr/include/util/delay.h ****      the documentation and/or other materials provided with the
  15:/usr/lib/avr/include/util/delay.h ****      distribution.
  16:/usr/lib/avr/include/util/delay.h **** 
GAS LISTING /tmp/ccOpXWZF.s 			page 2


  17:/usr/lib/avr/include/util/delay.h ****    * Neither the name of the copyright holders nor the names of
  18:/usr/lib/avr/include/util/delay.h ****      contributors may be used to endorse or promote products derived
  19:/usr/lib/avr/include/util/delay.h ****      from this software without specific prior written permission.
  20:/usr/lib/avr/include/util/delay.h **** 
  21:/usr/lib/avr/include/util/delay.h ****   THIS SOFTWARE IS PROVIDED BY THE COPYRIGHT HOLDERS AND CONTRIBUTORS "AS IS"
  22:/usr/lib/avr/include/util/delay.h ****   AND ANY EXPRESS OR IMPLIED WARRANTIES, INCLUDING, BUT NOT LIMITED TO, THE
  23:/usr/lib/avr/include/util/delay.h ****   IMPLIED WARRANTIES OF MERCHANTABILITY AND FITNESS FOR A PARTICULAR PURPOSE
  24:/usr/lib/avr/include/util/delay.h ****   ARE DISCLAIMED. IN NO EVENT SHALL THE COPYRIGHT OWNER OR CONTRIBUTORS BE
  25:/usr/lib/avr/include/util/delay.h ****   LIABLE FOR ANY DIRECT, INDIRECT, INCIDENTAL, SPECIAL, EXEMPLARY, OR
  26:/usr/lib/avr/include/util/delay.h ****   CONSEQUENTIAL DAMAGES (INCLUDING, BUT NOT LIMITED TO, PROCUREMENT OF
  27:/usr/lib/avr/include/util/delay.h ****   SUBSTITUTE GOODS OR SERVICES; LOSS OF USE, DATA, OR PROFITS; OR BUSINESS
  28:/usr/lib/avr/include/util/delay.h ****   INTERRUPTION) HOWEVER CAUSED AND ON ANY THEORY OF LIABILITY, WHETHER IN
  29:/usr/lib/avr/include/util/delay.h ****   CONTRACT, STRICT LIABILITY, OR TORT (INCLUDING NEGLIGENCE OR OTHERWISE)
  30:/usr/lib/avr/include/util/delay.h ****   ARISING IN ANY WAY OUT OF THE USE OF THIS SOFTWARE, EVEN IF ADVISED OF THE
  31:/usr/lib/avr/include/util/delay.h ****   POSSIBILITY OF SUCH DAMAGE. */
  32:/usr/lib/avr/include/util/delay.h **** 
  33:/usr/lib/avr/include/util/delay.h **** /* $Id: delay.h.in 2251 2011-09-14 08:20:33Z joerg_wunsch $ */
  34:/usr/lib/avr/include/util/delay.h **** 
  35:/usr/lib/avr/include/util/delay.h **** #ifndef _UTIL_DELAY_H_
  36:/usr/lib/avr/include/util/delay.h **** #define _UTIL_DELAY_H_ 1
  37:/usr/lib/avr/include/util/delay.h **** 
  38:/usr/lib/avr/include/util/delay.h **** #ifndef __HAS_DELAY_CYCLES
  39:/usr/lib/avr/include/util/delay.h **** #define __HAS_DELAY_CYCLES 1
  40:/usr/lib/avr/include/util/delay.h **** #endif
  41:/usr/lib/avr/include/util/delay.h **** 
  42:/usr/lib/avr/include/util/delay.h **** #include <inttypes.h>
  43:/usr/lib/avr/include/util/delay.h **** #include <util/delay_basic.h>
  44:/usr/lib/avr/include/util/delay.h **** #include <math.h>
  45:/usr/lib/avr/include/util/delay.h **** 
  46:/usr/lib/avr/include/util/delay.h **** /** \file */
  47:/usr/lib/avr/include/util/delay.h **** /** \defgroup util_delay <util/delay.h>: Convenience functions for busy-wait delay loops
  48:/usr/lib/avr/include/util/delay.h ****     \code
  49:/usr/lib/avr/include/util/delay.h ****     #define F_CPU 1000000UL  // 1 MHz
  50:/usr/lib/avr/include/util/delay.h ****     //#define F_CPU 14.7456E6
  51:/usr/lib/avr/include/util/delay.h ****     #include <util/delay.h>
  52:/usr/lib/avr/include/util/delay.h ****     \endcode
  53:/usr/lib/avr/include/util/delay.h **** 
  54:/usr/lib/avr/include/util/delay.h ****     \note As an alternative method, it is possible to pass the
  55:/usr/lib/avr/include/util/delay.h ****     F_CPU macro down to the compiler from the Makefile.
  56:/usr/lib/avr/include/util/delay.h ****     Obviously, in that case, no \c \#define statement should be
  57:/usr/lib/avr/include/util/delay.h ****     used.
  58:/usr/lib/avr/include/util/delay.h **** 
  59:/usr/lib/avr/include/util/delay.h ****     The functions in this header file are wrappers around the basic
  60:/usr/lib/avr/include/util/delay.h ****     busy-wait functions from <util/delay_basic.h>.  They are meant as
  61:/usr/lib/avr/include/util/delay.h ****     convenience functions where actual time values can be specified
  62:/usr/lib/avr/include/util/delay.h ****     rather than a number of cycles to wait for.  The idea behind is
  63:/usr/lib/avr/include/util/delay.h ****     that compile-time constant expressions will be eliminated by
  64:/usr/lib/avr/include/util/delay.h ****     compiler optimization so floating-point expressions can be used
  65:/usr/lib/avr/include/util/delay.h ****     to calculate the number of delay cycles needed based on the CPU
  66:/usr/lib/avr/include/util/delay.h ****     frequency passed by the macro F_CPU.
  67:/usr/lib/avr/include/util/delay.h **** 
  68:/usr/lib/avr/include/util/delay.h ****     \note In order for these functions to work as intended, compiler
  69:/usr/lib/avr/include/util/delay.h ****     optimizations <em>must</em> be enabled, and the delay time
  70:/usr/lib/avr/include/util/delay.h ****     <em>must</em> be an expression that is a known constant at
  71:/usr/lib/avr/include/util/delay.h ****     compile-time.  If these requirements are not met, the resulting
  72:/usr/lib/avr/include/util/delay.h ****     delay will be much longer (and basically unpredictable), and
  73:/usr/lib/avr/include/util/delay.h ****     applications that otherwise do not use floating-point calculations
GAS LISTING /tmp/ccOpXWZF.s 			page 3


  74:/usr/lib/avr/include/util/delay.h ****     will experience severe code bloat by the floating-point library
  75:/usr/lib/avr/include/util/delay.h ****     routines linked into the application.
  76:/usr/lib/avr/include/util/delay.h **** 
  77:/usr/lib/avr/include/util/delay.h ****     The functions available allow the specification of microsecond, and
  78:/usr/lib/avr/include/util/delay.h ****     millisecond delays directly, using the application-supplied macro
  79:/usr/lib/avr/include/util/delay.h ****     F_CPU as the CPU clock frequency (in Hertz).
  80:/usr/lib/avr/include/util/delay.h **** 
  81:/usr/lib/avr/include/util/delay.h **** */
  82:/usr/lib/avr/include/util/delay.h **** 
  83:/usr/lib/avr/include/util/delay.h **** #if !defined(__DOXYGEN__)
  84:/usr/lib/avr/include/util/delay.h **** static inline void _delay_us(double __us) __attribute__((always_inline));
  85:/usr/lib/avr/include/util/delay.h **** static inline void _delay_ms(double __ms) __attribute__((always_inline));
  86:/usr/lib/avr/include/util/delay.h **** #endif
  87:/usr/lib/avr/include/util/delay.h **** 
  88:/usr/lib/avr/include/util/delay.h **** #ifndef F_CPU
  89:/usr/lib/avr/include/util/delay.h **** /* prevent compiler error by supplying a default */
  90:/usr/lib/avr/include/util/delay.h **** # warning "F_CPU not defined for <util/delay.h>"
  91:/usr/lib/avr/include/util/delay.h **** # define F_CPU 1000000UL
  92:/usr/lib/avr/include/util/delay.h **** #endif
  93:/usr/lib/avr/include/util/delay.h **** 
  94:/usr/lib/avr/include/util/delay.h **** #ifndef __OPTIMIZE__
  95:/usr/lib/avr/include/util/delay.h **** # warning "Compiler optimizations disabled; functions from <util/delay.h> won't work as designed"
  96:/usr/lib/avr/include/util/delay.h **** #endif
  97:/usr/lib/avr/include/util/delay.h **** 
  98:/usr/lib/avr/include/util/delay.h **** #if __HAS_DELAY_CYCLES && defined(__OPTIMIZE__) && \
  99:/usr/lib/avr/include/util/delay.h ****   !defined(__DELAY_BACKWARD_COMPATIBLE__) &&	   \
 100:/usr/lib/avr/include/util/delay.h ****   __STDC_HOSTED__
 101:/usr/lib/avr/include/util/delay.h **** #  include <math.h>
 102:/usr/lib/avr/include/util/delay.h **** #endif
 103:/usr/lib/avr/include/util/delay.h **** 
 104:/usr/lib/avr/include/util/delay.h **** /**
 105:/usr/lib/avr/include/util/delay.h ****    \ingroup util_delay
 106:/usr/lib/avr/include/util/delay.h **** 
 107:/usr/lib/avr/include/util/delay.h ****    Perform a delay of \c __ms milliseconds, using _delay_loop_2().
 108:/usr/lib/avr/include/util/delay.h **** 
 109:/usr/lib/avr/include/util/delay.h ****    The macro F_CPU is supposed to be defined to a
 110:/usr/lib/avr/include/util/delay.h ****    constant defining the CPU clock frequency (in Hertz).
 111:/usr/lib/avr/include/util/delay.h **** 
 112:/usr/lib/avr/include/util/delay.h ****    The maximal possible delay is 262.14 ms / F_CPU in MHz.
 113:/usr/lib/avr/include/util/delay.h **** 
 114:/usr/lib/avr/include/util/delay.h ****    When the user request delay which exceed the maximum possible one,
 115:/usr/lib/avr/include/util/delay.h ****    _delay_ms() provides a decreased resolution functionality. In this
 116:/usr/lib/avr/include/util/delay.h ****    mode _delay_ms() will work with a resolution of 1/10 ms, providing
 117:/usr/lib/avr/include/util/delay.h ****    delays up to 6.5535 seconds (independent from CPU frequency).  The
 118:/usr/lib/avr/include/util/delay.h ****    user will not be informed about decreased resolution.
 119:/usr/lib/avr/include/util/delay.h **** 
 120:/usr/lib/avr/include/util/delay.h ****    If the avr-gcc toolchain has __builtin_avr_delay_cycles(unsigned long)
 121:/usr/lib/avr/include/util/delay.h ****    support, maximal possible delay is 4294967.295 ms/ F_CPU in MHz. For
 122:/usr/lib/avr/include/util/delay.h ****    values greater than the maximal possible delay, overflows results in
 123:/usr/lib/avr/include/util/delay.h ****    no delay i.e., 0ms.
 124:/usr/lib/avr/include/util/delay.h **** 
 125:/usr/lib/avr/include/util/delay.h ****    Conversion of __us into clock cycles may not always result in integer.
 126:/usr/lib/avr/include/util/delay.h ****    By default, the clock cycles rounded up to next integer. This ensures that
 127:/usr/lib/avr/include/util/delay.h ****    the user gets atleast __us microseconds of delay.
 128:/usr/lib/avr/include/util/delay.h **** 
 129:/usr/lib/avr/include/util/delay.h ****    Alternatively, user can define __DELAY_ROUND_DOWN__ and __DELAY_ROUND_CLOSEST__
 130:/usr/lib/avr/include/util/delay.h ****    to round down and round to closest integer.
GAS LISTING /tmp/ccOpXWZF.s 			page 4


 131:/usr/lib/avr/include/util/delay.h **** 
 132:/usr/lib/avr/include/util/delay.h ****    Note: The new implementation of _delay_ms(double __ms) with 
 133:/usr/lib/avr/include/util/delay.h ****     __builtin_avr_delay_cycles(unsigned long) support is not backward compatible. 
 134:/usr/lib/avr/include/util/delay.h ****    User can define __DELAY_BACKWARD_COMPATIBLE__ to get a backward compatible delay.
 135:/usr/lib/avr/include/util/delay.h ****    Also, the backward compatible
 136:/usr/lib/avr/include/util/delay.h ****    algorithm will be chosen if the code is compiled in a <em>freestanding
 137:/usr/lib/avr/include/util/delay.h ****    environment</em> (GCC option \c -ffreestanding), as the math functions
 138:/usr/lib/avr/include/util/delay.h ****    required for rounding are not available to the compiler then.
 139:/usr/lib/avr/include/util/delay.h **** 
 140:/usr/lib/avr/include/util/delay.h ****  */
 141:/usr/lib/avr/include/util/delay.h **** void
 142:/usr/lib/avr/include/util/delay.h **** _delay_ms(double __ms)
 143:/usr/lib/avr/include/util/delay.h **** {
 144:/usr/lib/avr/include/util/delay.h **** 	uint16_t __ticks;
 145:/usr/lib/avr/include/util/delay.h **** 	double __tmp ; 
 146:/usr/lib/avr/include/util/delay.h **** #if __HAS_DELAY_CYCLES && defined(__OPTIMIZE__) && \
 147:/usr/lib/avr/include/util/delay.h ****   !defined(__DELAY_BACKWARD_COMPATIBLE__) &&	   \
 148:/usr/lib/avr/include/util/delay.h ****   __STDC_HOSTED__
 149:/usr/lib/avr/include/util/delay.h **** 	uint32_t __ticks_dc;
 150:/usr/lib/avr/include/util/delay.h **** 	extern void __builtin_avr_delay_cycles(unsigned long);
 151:/usr/lib/avr/include/util/delay.h **** 	__tmp = ((F_CPU) / 1e3) * __ms;
 152:/usr/lib/avr/include/util/delay.h **** 
 153:/usr/lib/avr/include/util/delay.h **** 	#if defined(__DELAY_ROUND_DOWN__)
 154:/usr/lib/avr/include/util/delay.h **** 		__ticks_dc = (uint32_t)fabs(__tmp);
 155:/usr/lib/avr/include/util/delay.h **** 
 156:/usr/lib/avr/include/util/delay.h **** 	#elif defined(__DELAY_ROUND_CLOSEST__)
 157:/usr/lib/avr/include/util/delay.h **** 		__ticks_dc = (uint32_t)(fabs(__tmp)+0.5);
 158:/usr/lib/avr/include/util/delay.h **** 
 159:/usr/lib/avr/include/util/delay.h **** 	#else
 160:/usr/lib/avr/include/util/delay.h **** 		//round up by default
 161:/usr/lib/avr/include/util/delay.h **** 		__ticks_dc = (uint32_t)(ceil(fabs(__tmp)));
 162:/usr/lib/avr/include/util/delay.h **** 	#endif
 163:/usr/lib/avr/include/util/delay.h **** 
 164:/usr/lib/avr/include/util/delay.h **** 	__builtin_avr_delay_cycles(__ticks_dc);
 135               	.LM3:
 136 0014 E7E8      		ldi r30,lo8(4999)
 137 0016 F3E1      		ldi r31,hi8(4999)
 138 0018 3197      		1: sbiw r30,1
 139 001a 01F4      		brne 1b
 140 001c 00C0      		rjmp .
 141 001e 0000      		nop
 142               	.LBE7:
 143               	.LBE6:
 145               	.Ltext2:
 147               	.LM4:
 148 0020 0F5F      		subi r16,-1
 149 0022 1F4F      		sbci r17,-1
 150 0024 2F4F      		sbci r18,-1
 151 0026 3F4F      		sbci r19,-1
 152 0028 00C0      		rjmp .L2
 153               	.L5:
 154               	/* epilogue start */
   9:test.c        ****     _delay_ms(1);
  10:test.c        ****   }
  11:test.c        **** }
 156               	.LM5:
 157 002a 1F91      		pop r17
GAS LISTING /tmp/ccOpXWZF.s 			page 5


 158 002c 0F91      		pop r16
 159 002e 0895      		ret
 164               	.Lscope1:
 166               		.stabd	78,0,0
 167               		.section	.text.startup,"ax",@progbits
 169               	.global	main
 171               	main:
 172               		.stabd	46,0,0
  12:test.c        **** 
  13:test.c        **** #define NOOP asm volatile("nop" ::)
  14:test.c        **** 
  15:test.c        **** void SendTick();
  16:test.c        **** void SendAPacket();
  17:test.c        **** void SendBPacket();
  18:test.c        **** void SendCPacket();
  19:test.c        **** 
  20:test.c        **** static void setup_clock( void )
  21:test.c        **** {
  22:test.c        **** 	/*Examine Page 33*/
  23:test.c        **** 
  24:test.c        **** 	CLKPR = 0x80;	/*Setup CLKPCE to be receptive*/
  25:test.c        **** 	CLKPR = 0x00;	/*No scalar*/
  26:test.c        **** 
  27:test.c        **** 	PLLCSR = _BV(PLLE) | _BV( PCKE );
  28:test.c        **** 	PLLCSR |= _BV(LSM);
  29:test.c        **** 		//0xB7 to 0xC0 permissable 0xBB in middle.
  30:test.c        **** //	OSCCAL = 0xbc;
  31:test.c        **** 	OSCCAL = 0xbb;
  32:test.c        **** 
  33:test.c        **** }
  34:test.c        **** 
  35:test.c        **** 
  36:test.c        **** int main( )
  37:test.c        **** {
 174               	.LM6:
 175               	.LFBB2:
 176               	/* prologue: function */
 177               	/* frame size = 0 */
 178               	/* stack size = 0 */
 179               	.L__stack_usage = 0
  38:test.c        **** 	int i;
  39:test.c        **** 	unsigned char wasa, wasb, isa, isb;
  40:test.c        **** 	cli();
 181               	.LM7:
 182               	/* #APP */
 183               	 ;  40 "test.c" 1
 184 0000 F894      		cli
 185               	 ;  0 "" 2
 186               	/* #NOAPP */
 187               	.LBB12:
 188               	.LBB13:
  24:test.c        **** 	CLKPR = 0x80;	/*Setup CLKPCE to be receptive*/
 190               	.LM8:
 191 0002 80E8      		ldi r24,lo8(-128)
 192 0004 86BD      		out 0x26,r24
  25:test.c        **** 	CLKPR = 0x00;	/*No scalar*/
 194               	.LM9:
GAS LISTING /tmp/ccOpXWZF.s 			page 6


 195 0006 16BC      		out 0x26,__zero_reg__
  27:test.c        **** 	PLLCSR = _BV(PLLE) | _BV( PCKE );
 197               	.LM10:
 198 0008 86E0      		ldi r24,lo8(6)
 199 000a 87BD      		out 0x27,r24
  28:test.c        **** 	PLLCSR |= _BV(LSM);
 201               	.LM11:
 202 000c 87B5      		in r24,0x27
 203 000e 8068      		ori r24,lo8(-128)
 204 0010 87BD      		out 0x27,r24
  31:test.c        **** 	OSCCAL = 0xbb;
 206               	.LM12:
 207 0012 8BEB      		ldi r24,lo8(-69)
 208 0014 81BF      		out 0x31,r24
 209               	.LBE13:
 210               	.LBE12:
  41:test.c        **** 
  42:test.c        **** 	setup_clock();
  43:test.c        **** 
  44:test.c        **** 	DDRB = 0;
 212               	.LM13:
 213 0016 17BA      		out 0x17,__zero_reg__
  45:test.c        **** 	DDRB |= _BV(3) | _BV(4) | _BV(1);
 215               	.LM14:
 216 0018 87B3      		in r24,0x17
 217 001a 8A61      		ori r24,lo8(26)
 218 001c 87BB      		out 0x17,r24
  46:test.c        **** 	PORTB &= ~_BV(1);
 220               	.LM15:
 221 001e C198      		cbi 0x18,1
 222 0020 FF24      		clr r15
 223 0022 F394      		inc r15
 224               	.L7:
 225               	.LBB14:
 226               	.LBB15:
 228               	.Ltext3:
 230               	.LM16:
 231 0024 2FEF      		ldi r18,lo8(63999)
 232 0026 89EF      		ldi r24,hi8(63999)
 233 0028 90E0      		ldi r25,hlo8(63999)
 234 002a 2150      		1: subi r18,1
 235 002c 8040      		sbci r24,0
 236 002e 9040      		sbci r25,0
 237 0030 01F4      		brne 1b
 238 0032 00C0      		rjmp .
 239 0034 0000      		nop
 240               	.LBE15:
 241               	.LBE14:
 243               	.Ltext4:
  47:test.c        **** 
  48:test.c        **** 	for( ;; )
  49:test.c        **** 	{
  50:test.c        **** 		_delay_ms(16);
  51:test.c        **** 		SendTick();
 245               	.LM17:
 246 0036 00D0      		rcall SendTick
  52:test.c        **** 
GAS LISTING /tmp/ccOpXWZF.s 			page 7


  53:test.c        **** 		isa = !(PINB & _BV(0));
 248               	.LM18:
 249 0038 16B3      		in r17,0x16
 250 003a 1170      		andi r17,lo8(1)
 251 003c 1F25      		eor r17,r15
  54:test.c        **** 		isb = !(PINB & _BV(2));
 253               	.LM19:
 254 003e 06B3      		in r16,0x16
 255 0040 02FB      		bst r16,2
 256 0042 0027      		clr r16
 257 0044 00F9      		bld r16,0
 258 0046 0F25      		eor r16,r15
  55:test.c        **** 
  56:test.c        **** 		i++;
 260               	.LM20:
 261 0048 2196      		adiw r28,1
  57:test.c        **** 
  58:test.c        **** 		if( isa != wasa )
 263               	.LM21:
 264 004a 1E15      		cp r17,r14
 265 004c 01F0      		breq .L11
  59:test.c        **** 		{
  60:test.c        **** 			if( isa )
 267               	.LM22:
 268 004e 1123      		tst r17
 269 0050 01F0      		breq .L8
  61:test.c        **** 				SendAPacket();
 271               	.LM23:
 272 0052 00D0      		rcall SendAPacket
 273 0054 00C0      		rjmp .L8
 274               	.L11:
 275 0056 1E2D      		mov r17,r14
 276               	.L8:
  62:test.c        **** 			wasa = isa;
  63:test.c        **** 		}
  64:test.c        **** 		if( isb != wasb )
 278               	.LM24:
 279 0058 0D15      		cp r16,r13
 280 005a 01F0      		breq .L9
  65:test.c        **** 		{
  66:test.c        **** 			if( isb )
 282               	.LM25:
 283 005c 0111      		cpse r16,__zero_reg__
  67:test.c        **** 				SendBPacket();
 285               	.LM26:
 286 005e 00D0      		rcall SendBPacket
 287               	.L9:
  68:test.c        **** 			wasb = isb;
  69:test.c        **** 		}
  70:test.c        **** 
  71:test.c        **** 		if( i == 5 )
  72:test.c        **** 		{
  73:test.c        **** //			if( isa )
  74:test.c        **** //				SendAPacket();
  75:test.c        **** 		}
  76:test.c        **** 		if( i == 10 )
  77:test.c        **** 		{
GAS LISTING /tmp/ccOpXWZF.s 			page 8


  78:test.c        **** //			if( isb )
  79:test.c        **** //				SendBPacket();
  80:test.c        **** 		}
  81:test.c        **** 		if( i == 15 )
 289               	.LM27:
 290 0060 CF30      		cpi r28,15
 291 0062 D105      		cpc r29,__zero_reg__
 292 0064 01F0      		breq .L19
 293               	.L10:
  82:test.c        **** 		{
  83:test.c        **** 			SendCPacket();
  84:test.c        **** 			i = 0;
 295               	.LM28:
 296 0066 D02E      		mov r13,r16
 297 0068 E12E      		mov r14,r17
 298 006a 00C0      		rjmp .L7
 299               	.L19:
  83:test.c        **** 			SendCPacket();
 301               	.LM29:
 302 006c 00D0      		rcall SendCPacket
 304               	.LM30:
 305 006e C0E0      		ldi r28,0
 306 0070 D0E0      		ldi r29,0
 307 0072 00C0      		rjmp .L10
 312               	.Lscope2:
 314               		.stabd	78,0,0
 315               		.text
 317               	.Letext0:
 318               		.ident	"GCC: (GNU) 4.8.2"
GAS LISTING /tmp/ccOpXWZF.s 			page 9


DEFINED SYMBOLS
                            *ABS*:0000000000000000 test.c
     /tmp/ccOpXWZF.s:2      *ABS*:000000000000003e __SP_H__
     /tmp/ccOpXWZF.s:3      *ABS*:000000000000003d __SP_L__
     /tmp/ccOpXWZF.s:4      *ABS*:000000000000003f __SREG__
     /tmp/ccOpXWZF.s:5      *ABS*:0000000000000000 __tmp_reg__
     /tmp/ccOpXWZF.s:6      *ABS*:0000000000000001 __zero_reg__
     /tmp/ccOpXWZF.s:106    .text:0000000000000000 delay_ms
     /tmp/ccOpXWZF.s:171    .text.startup:0000000000000000 main

UNDEFINED SYMBOLS
SendTick
SendAPacket
SendBPacket
SendCPacket
GAS LISTING /tmp/ccOpXWZF.s 			page 1


   1               	# 1 "asmtest.S"
   1               	// Copyright 2012 Charles Lohr under the MIT/x11, newBSD, LGPL or GPL licenses.  You choose.
   1               	...
   0               	
   2               	
   3               	//XXX TODO In SPIW, should we be setting ETSI low on start in r18??
   4               	
   5               	#define _SFR_ASM_COMPAT 1
   6               	#define __SFR_OFFSET 0
   7               	
   8               	#include <avr/io.h>
   1               	/* Copyright (c) 2002,2003,2005,2006,2007 Marek Michalkiewicz, Joerg Wunsch
   2               	   Copyright (c) 2007 Eric B. Weddington
   3               	   All rights reserved.
   4               	
   5               	   Redistribution and use in source and binary forms, with or without
   6               	   modification, are permitted provided that the following conditions are met:
   7               	
   8               	   * Redistributions of source code must retain the above copyright
   9               	     notice, this list of conditions and the following disclaimer.
  10               	
  11               	   * Redistributions in binary form must reproduce the above copyright
  12               	     notice, this list of conditions and the following disclaimer in
  13               	     the documentation and/or other materials provided with the
  14               	     distribution.
  15               	
  16               	   * Neither the name of the copyright holders nor the names of
  17               	     contributors may be used to endorse or promote products derived
  18               	     from this software without specific prior written permission.
  19               	
  20               	  THIS SOFTWARE IS PROVIDED BY THE COPYRIGHT HOLDERS AND CONTRIBUTORS "AS IS"
  21               	  AND ANY EXPRESS OR IMPLIED WARRANTIES, INCLUDING, BUT NOT LIMITED TO, THE
  22               	  IMPLIED WARRANTIES OF MERCHANTABILITY AND FITNESS FOR A PARTICULAR PURPOSE
  23               	  ARE DISCLAIMED. IN NO EVENT SHALL THE COPYRIGHT OWNER OR CONTRIBUTORS BE
  24               	  LIABLE FOR ANY DIRECT, INDIRECT, INCIDENTAL, SPECIAL, EXEMPLARY, OR
  25               	  CONSEQUENTIAL DAMAGES (INCLUDING, BUT NOT LIMITED TO, PROCUREMENT OF
  26               	  SUBSTITUTE GOODS OR SERVICES; LOSS OF USE, DATA, OR PROFITS; OR BUSINESS
  27               	  INTERRUPTION) HOWEVER CAUSED AND ON ANY THEORY OF LIABILITY, WHETHER IN
  28               	  CONTRACT, STRICT LIABILITY, OR TORT (INCLUDING NEGLIGENCE OR OTHERWISE)
  29               	  ARISING IN ANY WAY OUT OF THE USE OF THIS SOFTWARE, EVEN IF ADVISED OF THE
  30               	  POSSIBILITY OF SUCH DAMAGE. */
  31               	
  32               	/* $Id: io.h 2211 2011-02-14 14:04:25Z aboyapati $ */
  33               	
  34               	/** \file */
  35               	/** \defgroup avr_io <avr/io.h>: AVR device-specific IO definitions
  36               	    \code #include <avr/io.h> \endcode
  37               	
  38               	    This header file includes the apropriate IO definitions for the
  39               	    device that has been specified by the <tt>-mmcu=</tt> compiler
  40               	    command-line switch.  This is done by diverting to the appropriate
  41               	    file <tt>&lt;avr/io</tt><em>XXXX</em><tt>.h&gt;</tt> which should
  42               	    never be included directly.  Some register names common to all
  43               	    AVR devices are defined directly within <tt>&lt;avr/common.h&gt;</tt>,
  44               	    which is included in <tt>&lt;avr/io.h&gt;</tt>,
  45               	    but most of the details come from the respective include file.
  46               	
GAS LISTING /tmp/ccOpXWZF.s 			page 2


  47               	    Note that this file always includes the following files:
  48               	    \code 
  49               	    #include <avr/sfr_defs.h>
  50               	    #include <avr/portpins.h>
  51               	    #include <avr/common.h>
  52               	    #include <avr/version.h>
  53               	    \endcode
  54               	    See \ref avr_sfr for more details about that header file.
  55               	
  56               	    Included are definitions of the IO register set and their
  57               	    respective bit values as specified in the Atmel documentation.
  58               	    Note that inconsistencies in naming conventions,
  59               	    so even identical functions sometimes get different names on
  60               	    different devices.
  61               	
  62               	    Also included are the specific names useable for interrupt
  63               	    function definitions as documented
  64               	    \ref avr_signames "here".
  65               	
  66               	    Finally, the following macros are defined:
  67               	
  68               	    - \b RAMEND
  69               	    <br>
  70               	    The last on-chip RAM address.
  71               	    <br>
  72               	    - \b XRAMEND
  73               	    <br>
  74               	    The last possible RAM location that is addressable. This is equal to 
  75               	    RAMEND for devices that do not allow for external RAM. For devices 
  76               	    that allow external RAM, this will be larger than RAMEND.
  77               	    <br>
  78               	    - \b E2END
  79               	    <br>
  80               	    The last EEPROM address.
  81               	    <br>
  82               	    - \b FLASHEND
  83               	    <br>
  84               	    The last byte address in the Flash program space.
  85               	    <br>
  86               	    - \b SPM_PAGESIZE
  87               	    <br>
  88               	    For devices with bootloader support, the flash pagesize
  89               	    (in bytes) to be used for the \c SPM instruction. 
  90               	    - \b E2PAGESIZE
  91               	    <br>
  92               	    The size of the EEPROM page.
  93               	    
  94               	*/
  95               	
  96               	#ifndef _AVR_IO_H_
  97               	#define _AVR_IO_H_
  98               	
  99               	#include <avr/sfr_defs.h>
   1               	/* Copyright (c) 2002, Marek Michalkiewicz <marekm@amelek.gda.pl>
 100               	
 101               	#if defined (__AVR_AT94K__)
 102               	#  include <avr/ioat94k.h>
GAS LISTING /tmp/ccOpXWZF.s 			page 3


 103               	#elif defined (__AVR_AT43USB320__)
 104               	#  include <avr/io43u32x.h>
 105               	#elif defined (__AVR_AT43USB355__)
 106               	#  include <avr/io43u35x.h>
 107               	#elif defined (__AVR_AT76C711__)
 108               	#  include <avr/io76c711.h>
 109               	#elif defined (__AVR_AT86RF401__)
 110               	#  include <avr/io86r401.h>
 111               	#elif defined (__AVR_AT90PWM1__)
 112               	#  include <avr/io90pwm1.h>
 113               	#elif defined (__AVR_AT90PWM2__)
 114               	#  include <avr/io90pwmx.h>
 115               	#elif defined (__AVR_AT90PWM2B__)
 116               	#  include <avr/io90pwm2b.h>
 117               	#elif defined (__AVR_AT90PWM3__)
 118               	#  include <avr/io90pwmx.h>
 119               	#elif defined (__AVR_AT90PWM3B__)
 120               	#  include <avr/io90pwm3b.h>
 121               	#elif defined (__AVR_AT90PWM216__)
 122               	#  include <avr/io90pwm216.h>
 123               	#elif defined (__AVR_AT90PWM316__)
 124               	#  include <avr/io90pwm316.h>
 125               	#elif defined (__AVR_AT90PWM81__)
 126               	#  include <avr/io90pwm81.h>
 127               	#elif defined (__AVR_ATmega8U2__)
 128               	#  include <avr/iom8u2.h>
 129               	#elif defined (__AVR_ATmega16M1__)
 130               	#  include <avr/iom16m1.h>
 131               	#elif defined (__AVR_ATmega16U2__)
 132               	#  include <avr/iom16u2.h>
 133               	#elif defined (__AVR_ATmega16U4__)
 134               	#  include <avr/iom16u4.h>
 135               	#elif defined (__AVR_ATmega32C1__)
 136               	#  include <avr/iom32c1.h>
 137               	#elif defined (__AVR_ATmega32M1__)
 138               	#  include <avr/iom32m1.h>
 139               	#elif defined (__AVR_ATmega32U2__)
 140               	#  include <avr/iom32u2.h>
 141               	#elif defined (__AVR_ATmega32U4__)
 142               	#  include <avr/iom32u4.h>
 143               	#elif defined (__AVR_ATmega32U6__)
 144               	#  include <avr/iom32u6.h>
 145               	#elif defined (__AVR_ATmega64C1__)
 146               	#  include <avr/iom64c1.h>
 147               	#elif defined (__AVR_ATmega64M1__)
 148               	#  include <avr/iom64m1.h>
 149               	#elif defined (__AVR_ATmega128__)
 150               	#  include <avr/iom128.h>
 151               	#elif defined (__AVR_ATmega1280__)
 152               	#  include <avr/iom1280.h>
 153               	#elif defined (__AVR_ATmega1281__)
 154               	#  include <avr/iom1281.h>
 155               	#elif defined (__AVR_ATmega1284P__)
 156               	#  include <avr/iom1284p.h>
 157               	#elif defined (__AVR_ATmega128RFA1__)
 158               	#  include <avr/iom128rfa1.h>
 159               	#elif defined (__AVR_ATmega2560__)
GAS LISTING /tmp/ccOpXWZF.s 			page 4


 160               	#  include <avr/iom2560.h>
 161               	#elif defined (__AVR_ATmega2561__)
 162               	#  include <avr/iom2561.h>
 163               	#elif defined (__AVR_AT90CAN32__)
 164               	#  include <avr/iocan32.h>
 165               	#elif defined (__AVR_AT90CAN64__)
 166               	#  include <avr/iocan64.h>
 167               	#elif defined (__AVR_AT90CAN128__)
 168               	#  include <avr/iocan128.h>
 169               	#elif defined (__AVR_AT90USB82__)
 170               	#  include <avr/iousb82.h>
 171               	#elif defined (__AVR_AT90USB162__)
 172               	#  include <avr/iousb162.h>
 173               	#elif defined (__AVR_AT90USB646__)
 174               	#  include <avr/iousb646.h>
 175               	#elif defined (__AVR_AT90USB647__)
 176               	#  include <avr/iousb647.h>
 177               	#elif defined (__AVR_AT90USB1286__)
 178               	#  include <avr/iousb1286.h>
 179               	#elif defined (__AVR_AT90USB1287__)
 180               	#  include <avr/iousb1287.h>
 181               	#elif defined (__AVR_ATmega64__)
 182               	#  include <avr/iom64.h>
 183               	#elif defined (__AVR_ATmega640__)
 184               	#  include <avr/iom640.h>
 185               	#elif defined (__AVR_ATmega644__) || defined (__AVR_ATmega644A__)
 186               	#  include <avr/iom644.h>
 187               	#elif defined (__AVR_ATmega644P__)
 188               	#  include <avr/iom644p.h>
 189               	#elif defined (__AVR_ATmega644PA__)
 190               	#  include <avr/iom644pa.h>
 191               	#elif defined (__AVR_ATmega645__) || defined (__AVR_ATmega645A__) || defined (__AVR_ATmega645P__)
 192               	#  include <avr/iom645.h>
 193               	#elif defined (__AVR_ATmega6450__) || defined (__AVR_ATmega6450A__) || defined (__AVR_ATmega6450P__
 194               	#  include <avr/iom6450.h>
 195               	#elif defined (__AVR_ATmega649__) || defined (__AVR_ATmega649A__)
 196               	#  include <avr/iom649.h>
 197               	#elif defined (__AVR_ATmega6490__) || defined (__AVR_ATmega6490A__) || defined (__AVR_ATmega6490P__
 198               	#  include <avr/iom6490.h>
 199               	#elif defined (__AVR_ATmega649P__)
 200               	#  include <avr/iom649p.h>
 201               	#elif defined (__AVR_ATmega64HVE__)
 202               	#  include <avr/iom64hve.h>
 203               	#elif defined (__AVR_ATmega103__)
 204               	#  include <avr/iom103.h>
 205               	#elif defined (__AVR_ATmega32__)
 206               	#  include <avr/iom32.h>
 207               	#elif defined (__AVR_ATmega323__)
 208               	#  include <avr/iom323.h>
 209               	#elif defined (__AVR_ATmega324P__) || defined (__AVR_ATmega324A__)
 210               	#  include <avr/iom324.h>
 211               	#elif defined (__AVR_ATmega324PA__)
 212               	#  include <avr/iom324pa.h>
 213               	#elif defined (__AVR_ATmega325__) || defined (__AVR_ATmega325A__)
 214               	#  include <avr/iom325.h>
 215               	#elif defined (__AVR_ATmega325P__)
 216               	#  include <avr/iom325.h>
GAS LISTING /tmp/ccOpXWZF.s 			page 5


 217               	#elif defined (__AVR_ATmega3250__) || defined (__AVR_ATmega3250A__)
 218               	#  include <avr/iom3250.h>
 219               	#elif defined (__AVR_ATmega3250P__)
 220               	#  include <avr/iom3250.h>
 221               	#elif defined (__AVR_ATmega328P__) || defined (__AVR_ATmega328__)
 222               	#  include <avr/iom328p.h>
 223               	#elif defined (__AVR_ATmega329__) || defined (__AVR_ATmega329A__)
 224               	#  include <avr/iom329.h>
 225               	#elif defined (__AVR_ATmega329P__) || defined (__AVR_ATmega329PA__)
 226               	#  include <avr/iom329.h>
 227               	#elif defined (__AVR_ATmega3290__) || defined (__AVR_ATmega3290A__)
 228               	#  include <avr/iom3290.h>
 229               	#elif defined (__AVR_ATmega3290P__)
 230               	#  include <avr/iom3290.h>
 231               	#elif defined (__AVR_ATmega32HVB__)
 232               	#  include <avr/iom32hvb.h>
 233               	#elif defined (__AVR_ATmega32HVBREVB__)
 234               	#  include <avr/iom32hvbrevb.h>
 235               	#elif defined (__AVR_ATmega406__)
 236               	#  include <avr/iom406.h>
 237               	#elif defined (__AVR_ATmega16__)
 238               	#  include <avr/iom16.h>
 239               	#elif defined (__AVR_ATmega16A__)
 240               	#  include <avr/iom16a.h>
 241               	#elif defined (__AVR_ATmega161__)
 242               	#  include <avr/iom161.h>
 243               	#elif defined (__AVR_ATmega162__)
 244               	#  include <avr/iom162.h>
 245               	#elif defined (__AVR_ATmega163__)
 246               	#  include <avr/iom163.h>
 247               	#elif defined (__AVR_ATmega164P__) || defined (__AVR_ATmega164A__)
 248               	#  include <avr/iom164.h>
 249               	#elif defined (__AVR_ATmega165__) || defined (__AVR_ATmega165A__)
 250               	#  include <avr/iom165.h>
 251               	#elif defined (__AVR_ATmega165P__)
 252               	#  include <avr/iom165p.h>
 253               	#elif defined (__AVR_ATmega168__) || defined (__AVR_ATmega168A__)
 254               	#  include <avr/iom168.h>
 255               	#elif defined (__AVR_ATmega168P__)
 256               	#  include <avr/iom168p.h>
 257               	#elif defined (__AVR_ATmega169__) || defined (__AVR_ATmega169A__)
 258               	#  include <avr/iom169.h>
 259               	#elif defined (__AVR_ATmega169P__)
 260               	#  include <avr/iom169p.h>
 261               	#elif defined (__AVR_ATmega169PA__)
 262               	#  include <avr/iom169pa.h>
 263               	#elif defined (__AVR_ATmega8HVA__)
 264               	#  include <avr/iom8hva.h>
 265               	#elif defined (__AVR_ATmega16HVA__)
 266               	#  include <avr/iom16hva.h>
 267               	#elif defined (__AVR_ATmega16HVA2__)
 268               	#  include <avr/iom16hva2.h>
 269               	#elif defined (__AVR_ATmega16HVB__)
 270               	#  include <avr/iom16hvb.h>
 271               	#elif defined (__AVR_ATmega16HVBREVB__)
 272               	#  include <avr/iom16hvbrevb.h>
 273               	#elif defined (__AVR_ATmega8__)
GAS LISTING /tmp/ccOpXWZF.s 			page 6


 274               	#  include <avr/iom8.h>
 275               	#elif defined (__AVR_ATmega48__) || defined (__AVR_ATmega48A__)
 276               	#  include <avr/iom48.h>
 277               	#elif defined (__AVR_ATmega48P__)
 278               	#  include <avr/iom48p.h>
 279               	#elif defined (__AVR_ATmega88__) || defined (__AVR_ATmega88A__)
 280               	#  include <avr/iom88.h>
 281               	#elif defined (__AVR_ATmega88P__)
 282               	#  include <avr/iom88p.h>
 283               	#elif defined (__AVR_ATmega88PA__)
 284               	#  include <avr/iom88pa.h>
 285               	#elif defined (__AVR_ATmega8515__)
 286               	#  include <avr/iom8515.h>
 287               	#elif defined (__AVR_ATmega8535__)
 288               	#  include <avr/iom8535.h>
 289               	#elif defined (__AVR_AT90S8535__)
 290               	#  include <avr/io8535.h>
 291               	#elif defined (__AVR_AT90C8534__)
 292               	#  include <avr/io8534.h>
 293               	#elif defined (__AVR_AT90S8515__)
 294               	#  include <avr/io8515.h>
 295               	#elif defined (__AVR_AT90S4434__)
 296               	#  include <avr/io4434.h>
 297               	#elif defined (__AVR_AT90S4433__)
 298               	#  include <avr/io4433.h>
 299               	#elif defined (__AVR_AT90S4414__)
 300               	#  include <avr/io4414.h>
 301               	#elif defined (__AVR_ATtiny22__)
 302               	#  include <avr/iotn22.h>
 303               	#elif defined (__AVR_ATtiny26__)
 304               	#  include <avr/iotn26.h>
 305               	#elif defined (__AVR_AT90S2343__)
 306               	#  include <avr/io2343.h>
 307               	#elif defined (__AVR_AT90S2333__)
 308               	#  include <avr/io2333.h>
 309               	#elif defined (__AVR_AT90S2323__)
 310               	#  include <avr/io2323.h>
 311               	#elif defined (__AVR_AT90S2313__)
 312               	#  include <avr/io2313.h>
 313               	#elif defined (__AVR_ATtiny4__)
 314               	#  include <avr/iotn4.h>
 315               	#elif defined (__AVR_ATtiny5__)
 316               	#  include <avr/iotn5.h>
 317               	#elif defined (__AVR_ATtiny9__)
 318               	#  include <avr/iotn9.h>
 319               	#elif defined (__AVR_ATtiny10__)
 320               	#  include <avr/iotn10.h>
 321               	#elif defined (__AVR_ATtiny20__)
 322               	#  include <avr/iotn20.h>
 323               	#elif defined (__AVR_ATtiny40__)
 324               	#  include <avr/iotn40.h>
 325               	#elif defined (__AVR_ATtiny2313__)
 326               	#  include <avr/iotn2313.h>
 327               	#elif defined (__AVR_ATtiny2313A__)
 328               	#  include <avr/iotn2313a.h>
 329               	#elif defined (__AVR_ATtiny13__)
 330               	#  include <avr/iotn13.h>
GAS LISTING /tmp/ccOpXWZF.s 			page 7


 331               	#elif defined (__AVR_ATtiny13A__)
 332               	#  include <avr/iotn13a.h>
 333               	#elif defined (__AVR_ATtiny25__)
 334               	#  include <avr/iotn25.h>
 335               	#elif defined (__AVR_ATtiny4313__)
 336               	#  include <avr/iotn4313.h>
 337               	#elif defined (__AVR_ATtiny45__)
 338               	#  include <avr/iotn45.h>
 339               	#elif defined (__AVR_ATtiny85__)
 340               	#  include <avr/iotn85.h>
   1               	/* Copyright (c) 2005, Joerg Wunsch
   2               	   All rights reserved.
   3               	
   4               	   Redistribution and use in source and binary forms, with or without
   5               	   modification, are permitted provided that the following conditions are met:
   6               	
   7               	   * Redistributions of source code must retain the above copyright
   8               	     notice, this list of conditions and the following disclaimer.
   9               	
  10               	   * Redistributions in binary form must reproduce the above copyright
  11               	     notice, this list of conditions and the following disclaimer in
  12               	     the documentation and/or other materials provided with the
  13               	     distribution.
  14               	
  15               	   * Neither the name of the copyright holders nor the names of
  16               	     contributors may be used to endorse or promote products derived
  17               	     from this software without specific prior written permission.
  18               	
  19               	  THIS SOFTWARE IS PROVIDED BY THE COPYRIGHT HOLDERS AND CONTRIBUTORS "AS IS"
  20               	  AND ANY EXPRESS OR IMPLIED WARRANTIES, INCLUDING, BUT NOT LIMITED TO, THE
  21               	  IMPLIED WARRANTIES OF MERCHANTABILITY AND FITNESS FOR A PARTICULAR PURPOSE
  22               	  ARE DISCLAIMED. IN NO EVENT SHALL THE COPYRIGHT OWNER OR CONTRIBUTORS BE
  23               	  LIABLE FOR ANY DIRECT, INDIRECT, INCIDENTAL, SPECIAL, EXEMPLARY, OR
  24               	  CONSEQUENTIAL DAMAGES (INCLUDING, BUT NOT LIMITED TO, PROCUREMENT OF
  25               	  SUBSTITUTE GOODS OR SERVICES; LOSS OF USE, DATA, OR PROFITS; OR BUSINESS
  26               	  INTERRUPTION) HOWEVER CAUSED AND ON ANY THEORY OF LIABILITY, WHETHER IN
  27               	  CONTRACT, STRICT LIABILITY, OR TORT (INCLUDING NEGLIGENCE OR OTHERWISE)
  28               	  ARISING IN ANY WAY OUT OF THE USE OF THIS SOFTWARE, EVEN IF ADVISED OF THE
  29               	  POSSIBILITY OF SUCH DAMAGE. */
  30               	
  31               	/* $Id: iotn85.h 2115 2010-04-05 23:19:53Z arcanum $ */
  32               	
  33               	/* avr/iotn85.h - definitions for ATtiny85 */
  34               	
  35               	#ifndef _AVR_IOTN85_H_
  36               	#define _AVR_IOTN85_H_ 1
  37               	
  38               	#include <avr/iotnx5.h>
   1               	/* Copyright (c) 2005,2007 Anatoly Sokolov
  39               	
 341               	#elif defined (__AVR_ATtiny24__)
 342               	#  include <avr/iotn24.h>
 343               	#elif defined (__AVR_ATtiny24A__)
 344               	#  include <avr/iotn24a.h>
 345               	#elif defined (__AVR_ATtiny44__)
 346               	#  include <avr/iotn44.h>
 347               	#elif defined (__AVR_ATtiny44A__)
GAS LISTING /tmp/ccOpXWZF.s 			page 8


 348               	#  include <avr/iotn44a.h>
 349               	#elif defined (__AVR_ATtiny84__)
 350               	#  include <avr/iotn84.h>
 351               	#elif defined (__AVR_ATtiny84A__)
 352               	#  include <avr/iotn84a.h>  
 353               	#elif defined (__AVR_ATtiny261__)
 354               	#  include <avr/iotn261.h>
 355               	#elif defined (__AVR_ATtiny261A__)
 356               	#  include <avr/iotn261a.h>
 357               	#elif defined (__AVR_ATtiny461__)
 358               	#  include <avr/iotn461.h>
 359               	#elif defined (__AVR_ATtiny461A__)
 360               	#  include <avr/iotn461a.h>
 361               	#elif defined (__AVR_ATtiny861__)
 362               	#  include <avr/iotn861.h>
 363               	#elif defined (__AVR_ATtiny861A__)
 364               	#  include <avr/iotn861a.h>
 365               	#elif defined (__AVR_ATtiny43U__)
 366               	#  include <avr/iotn43u.h>
 367               	#elif defined (__AVR_ATtiny48__)
 368               	#  include <avr/iotn48.h>
 369               	#elif defined (__AVR_ATtiny88__)
 370               	#  include <avr/iotn88.h>
 371               	#elif defined (__AVR_ATtiny87__)
 372               	#  include <avr/iotn87.h>
 373               	#elif defined (__AVR_ATtiny167__)
 374               	#  include <avr/iotn167.h>
 375               	#elif defined (__AVR_AT90SCR100__)
 376               	#  include <avr/io90scr100.h>
 377               	#elif defined (__AVR_ATxmega16A4__)
 378               	#  include <avr/iox16a4.h>
 379               	#elif defined (__AVR_ATxmega16D4__)
 380               	#  include <avr/iox16d4.h>
 381               	#elif defined (__AVR_ATxmega32A4__)
 382               	#  include <avr/iox32a4.h>
 383               	#elif defined (__AVR_ATxmega32D4__)
 384               	#  include <avr/iox32d4.h>
 385               	#elif defined (__AVR_ATxmega64A1__)
 386               	#  include <avr/iox64a1.h>
 387               	#elif defined (__AVR_ATxmega64A1U__)
 388               	#  include <avr/iox64a1u.h>
 389               	#elif defined (__AVR_ATxmega64A3__)
 390               	#  include <avr/iox64a3.h>
 391               	#elif defined (__AVR_ATxmega64D3__)
 392               	#  include <avr/iox64d3.h>
 393               	#elif defined (__AVR_ATxmega128A1__)
 394               	#  include <avr/iox128a1.h>
 395               	#elif defined (__AVR_ATxmega128A1U__)
 396               	#  include <avr/iox128a1u.h>
 397               	#elif defined (__AVR_ATxmega128A3__)
 398               	#  include <avr/iox128a3.h>
 399               	#elif defined (__AVR_ATxmega128D3__)
 400               	#  include <avr/iox128d3.h>
 401               	#elif defined (__AVR_ATxmega192A3__)
 402               	#  include <avr/iox192a3.h>
 403               	#elif defined (__AVR_ATxmega192D3__)
 404               	#  include <avr/iox192d3.h>
GAS LISTING /tmp/ccOpXWZF.s 			page 9


 405               	#elif defined (__AVR_ATxmega256A3__)
 406               	#  include <avr/iox256a3.h>
 407               	#elif defined (__AVR_ATxmega256A3B__)
 408               	#  include <avr/iox256a3b.h>
 409               	#elif defined (__AVR_ATxmega256D3__)
 410               	#  include <avr/iox256d3.h>
 411               	#elif defined (__AVR_ATA6289__)
 412               	#  include <avr/ioa6289.h>
 413               	/* avr1: the following only supported for assembler programs */
 414               	#elif defined (__AVR_ATtiny28__)
 415               	#  include <avr/iotn28.h>
 416               	#elif defined (__AVR_AT90S1200__)
 417               	#  include <avr/io1200.h>
 418               	#elif defined (__AVR_ATtiny15__)
 419               	#  include <avr/iotn15.h>
 420               	#elif defined (__AVR_ATtiny12__)
 421               	#  include <avr/iotn12.h>
 422               	#elif defined (__AVR_ATtiny11__)
 423               	#  include <avr/iotn11.h>
 424               	#elif defined (__AVR_M3000__)
 425               	#  include <avr/iom3000.h>
 426               	#else
 427               	#  if !defined(__COMPILING_AVR_LIBC__)
 428               	#    warning "device type not defined"
 429               	#  endif
 430               	#endif
 431               	
 432               	#include <avr/portpins.h>
   1               	/* Copyright (c) 2003  Theodore A. Roth
 433               	
 434               	#include <avr/common.h>
   1               	/* Copyright (c) 2007 Eric B. Weddington
 435               	
 436               	#include <avr/version.h>
   1               	/* Copyright (c) 2005, Joerg Wunsch                               -*- c -*-
 437               	
 438               	/* Include fuse.h after individual IO header files. */
 439               	#include <avr/fuse.h>
   1               	/* Copyright (c) 2007, Atmel Corporation
 440               	
 441               	/* Include lock.h after individual IO header files. */
 442               	#include <avr/lock.h>
   1               	/* Copyright (c) 2007, Atmel Corporation
 443               	
   9               	
  10               	.global SendTick
  11               	SendTick:
  12:asmtest.S     **** 	ori r18, 0b00010101
  13:asmtest.S     **** 	ori r19, 0b00001101
  14:asmtest.S     **** 	ori r20, 0b00000101
  15:asmtest.S     **** 	out PORTB, r19
  16:asmtest.S     **** 	out PORTB, r19
  17:asmtest.S     **** 	out PORTB, r18
  18:asmtest.S     **** 	out PORTB, r18
  19:asmtest.S     **** 	out PORTB, r20
  20:asmtest.S     **** 	ret
GAS LISTING /tmp/ccOpXWZF.s 			page 10


DEFINED SYMBOLS
           asmtest.S:11     .text:0000000000000000 SendTick

NO UNDEFINED SYMBOLS
GAS LISTING /tmp/ccOpXWZF.s 			page 1


   1               	# 1 "sendpack.S"
   1               	//Auto-generated code.
   1               	...
   0               	
   2               	#define _SFR_ASM_COMPAT 1
   3               	#define __SFR_OFFSET 0
   4               	#include <avr/io.h>
   1               	/* Copyright (c) 2002,2003,2005,2006,2007 Marek Michalkiewicz, Joerg Wunsch
   2               	   Copyright (c) 2007 Eric B. Weddington
   3               	   All rights reserved.
   4               	
   5               	   Redistribution and use in source and binary forms, with or without
   6               	   modification, are permitted provided that the following conditions are met:
   7               	
   8               	   * Redistributions of source code must retain the above copyright
   9               	     notice, this list of conditions and the following disclaimer.
  10               	
  11               	   * Redistributions in binary form must reproduce the above copyright
  12               	     notice, this list of conditions and the following disclaimer in
  13               	     the documentation and/or other materials provided with the
  14               	     distribution.
  15               	
  16               	   * Neither the name of the copyright holders nor the names of
  17               	     contributors may be used to endorse or promote products derived
  18               	     from this software without specific prior written permission.
  19               	
  20               	  THIS SOFTWARE IS PROVIDED BY THE COPYRIGHT HOLDERS AND CONTRIBUTORS "AS IS"
  21               	  AND ANY EXPRESS OR IMPLIED WARRANTIES, INCLUDING, BUT NOT LIMITED TO, THE
  22               	  IMPLIED WARRANTIES OF MERCHANTABILITY AND FITNESS FOR A PARTICULAR PURPOSE
  23               	  ARE DISCLAIMED. IN NO EVENT SHALL THE COPYRIGHT OWNER OR CONTRIBUTORS BE
  24               	  LIABLE FOR ANY DIRECT, INDIRECT, INCIDENTAL, SPECIAL, EXEMPLARY, OR
  25               	  CONSEQUENTIAL DAMAGES (INCLUDING, BUT NOT LIMITED TO, PROCUREMENT OF
  26               	  SUBSTITUTE GOODS OR SERVICES; LOSS OF USE, DATA, OR PROFITS; OR BUSINESS
  27               	  INTERRUPTION) HOWEVER CAUSED AND ON ANY THEORY OF LIABILITY, WHETHER IN
  28               	  CONTRACT, STRICT LIABILITY, OR TORT (INCLUDING NEGLIGENCE OR OTHERWISE)
  29               	  ARISING IN ANY WAY OUT OF THE USE OF THIS SOFTWARE, EVEN IF ADVISED OF THE
  30               	  POSSIBILITY OF SUCH DAMAGE. */
  31               	
  32               	/* $Id: io.h 2211 2011-02-14 14:04:25Z aboyapati $ */
  33               	
  34               	/** \file */
  35               	/** \defgroup avr_io <avr/io.h>: AVR device-specific IO definitions
  36               	    \code #include <avr/io.h> \endcode
  37               	
  38               	    This header file includes the apropriate IO definitions for the
  39               	    device that has been specified by the <tt>-mmcu=</tt> compiler
  40               	    command-line switch.  This is done by diverting to the appropriate
  41               	    file <tt>&lt;avr/io</tt><em>XXXX</em><tt>.h&gt;</tt> which should
  42               	    never be included directly.  Some register names common to all
  43               	    AVR devices are defined directly within <tt>&lt;avr/common.h&gt;</tt>,
  44               	    which is included in <tt>&lt;avr/io.h&gt;</tt>,
  45               	    but most of the details come from the respective include file.
  46               	
  47               	    Note that this file always includes the following files:
  48               	    \code 
  49               	    #include <avr/sfr_defs.h>
  50               	    #include <avr/portpins.h>
GAS LISTING /tmp/ccOpXWZF.s 			page 2


  51               	    #include <avr/common.h>
  52               	    #include <avr/version.h>
  53               	    \endcode
  54               	    See \ref avr_sfr for more details about that header file.
  55               	
  56               	    Included are definitions of the IO register set and their
  57               	    respective bit values as specified in the Atmel documentation.
  58               	    Note that inconsistencies in naming conventions,
  59               	    so even identical functions sometimes get different names on
  60               	    different devices.
  61               	
  62               	    Also included are the specific names useable for interrupt
  63               	    function definitions as documented
  64               	    \ref avr_signames "here".
  65               	
  66               	    Finally, the following macros are defined:
  67               	
  68               	    - \b RAMEND
  69               	    <br>
  70               	    The last on-chip RAM address.
  71               	    <br>
  72               	    - \b XRAMEND
  73               	    <br>
  74               	    The last possible RAM location that is addressable. This is equal to 
  75               	    RAMEND for devices that do not allow for external RAM. For devices 
  76               	    that allow external RAM, this will be larger than RAMEND.
  77               	    <br>
  78               	    - \b E2END
  79               	    <br>
  80               	    The last EEPROM address.
  81               	    <br>
  82               	    - \b FLASHEND
  83               	    <br>
  84               	    The last byte address in the Flash program space.
  85               	    <br>
  86               	    - \b SPM_PAGESIZE
  87               	    <br>
  88               	    For devices with bootloader support, the flash pagesize
  89               	    (in bytes) to be used for the \c SPM instruction. 
  90               	    - \b E2PAGESIZE
  91               	    <br>
  92               	    The size of the EEPROM page.
  93               	    
  94               	*/
  95               	
  96               	#ifndef _AVR_IO_H_
  97               	#define _AVR_IO_H_
  98               	
  99               	#include <avr/sfr_defs.h>
   1               	/* Copyright (c) 2002, Marek Michalkiewicz <marekm@amelek.gda.pl>
 100               	
 101               	#if defined (__AVR_AT94K__)
 102               	#  include <avr/ioat94k.h>
 103               	#elif defined (__AVR_AT43USB320__)
 104               	#  include <avr/io43u32x.h>
 105               	#elif defined (__AVR_AT43USB355__)
 106               	#  include <avr/io43u35x.h>
GAS LISTING /tmp/ccOpXWZF.s 			page 3


 107               	#elif defined (__AVR_AT76C711__)
 108               	#  include <avr/io76c711.h>
 109               	#elif defined (__AVR_AT86RF401__)
 110               	#  include <avr/io86r401.h>
 111               	#elif defined (__AVR_AT90PWM1__)
 112               	#  include <avr/io90pwm1.h>
 113               	#elif defined (__AVR_AT90PWM2__)
 114               	#  include <avr/io90pwmx.h>
 115               	#elif defined (__AVR_AT90PWM2B__)
 116               	#  include <avr/io90pwm2b.h>
 117               	#elif defined (__AVR_AT90PWM3__)
 118               	#  include <avr/io90pwmx.h>
 119               	#elif defined (__AVR_AT90PWM3B__)
 120               	#  include <avr/io90pwm3b.h>
 121               	#elif defined (__AVR_AT90PWM216__)
 122               	#  include <avr/io90pwm216.h>
 123               	#elif defined (__AVR_AT90PWM316__)
 124               	#  include <avr/io90pwm316.h>
 125               	#elif defined (__AVR_AT90PWM81__)
 126               	#  include <avr/io90pwm81.h>
 127               	#elif defined (__AVR_ATmega8U2__)
 128               	#  include <avr/iom8u2.h>
 129               	#elif defined (__AVR_ATmega16M1__)
 130               	#  include <avr/iom16m1.h>
 131               	#elif defined (__AVR_ATmega16U2__)
 132               	#  include <avr/iom16u2.h>
 133               	#elif defined (__AVR_ATmega16U4__)
 134               	#  include <avr/iom16u4.h>
 135               	#elif defined (__AVR_ATmega32C1__)
 136               	#  include <avr/iom32c1.h>
 137               	#elif defined (__AVR_ATmega32M1__)
 138               	#  include <avr/iom32m1.h>
 139               	#elif defined (__AVR_ATmega32U2__)
 140               	#  include <avr/iom32u2.h>
 141               	#elif defined (__AVR_ATmega32U4__)
 142               	#  include <avr/iom32u4.h>
 143               	#elif defined (__AVR_ATmega32U6__)
 144               	#  include <avr/iom32u6.h>
 145               	#elif defined (__AVR_ATmega64C1__)
 146               	#  include <avr/iom64c1.h>
 147               	#elif defined (__AVR_ATmega64M1__)
 148               	#  include <avr/iom64m1.h>
 149               	#elif defined (__AVR_ATmega128__)
 150               	#  include <avr/iom128.h>
 151               	#elif defined (__AVR_ATmega1280__)
 152               	#  include <avr/iom1280.h>
 153               	#elif defined (__AVR_ATmega1281__)
 154               	#  include <avr/iom1281.h>
 155               	#elif defined (__AVR_ATmega1284P__)
 156               	#  include <avr/iom1284p.h>
 157               	#elif defined (__AVR_ATmega128RFA1__)
 158               	#  include <avr/iom128rfa1.h>
 159               	#elif defined (__AVR_ATmega2560__)
 160               	#  include <avr/iom2560.h>
 161               	#elif defined (__AVR_ATmega2561__)
 162               	#  include <avr/iom2561.h>
 163               	#elif defined (__AVR_AT90CAN32__)
GAS LISTING /tmp/ccOpXWZF.s 			page 4


 164               	#  include <avr/iocan32.h>
 165               	#elif defined (__AVR_AT90CAN64__)
 166               	#  include <avr/iocan64.h>
 167               	#elif defined (__AVR_AT90CAN128__)
 168               	#  include <avr/iocan128.h>
 169               	#elif defined (__AVR_AT90USB82__)
 170               	#  include <avr/iousb82.h>
 171               	#elif defined (__AVR_AT90USB162__)
 172               	#  include <avr/iousb162.h>
 173               	#elif defined (__AVR_AT90USB646__)
 174               	#  include <avr/iousb646.h>
 175               	#elif defined (__AVR_AT90USB647__)
 176               	#  include <avr/iousb647.h>
 177               	#elif defined (__AVR_AT90USB1286__)
 178               	#  include <avr/iousb1286.h>
 179               	#elif defined (__AVR_AT90USB1287__)
 180               	#  include <avr/iousb1287.h>
 181               	#elif defined (__AVR_ATmega64__)
 182               	#  include <avr/iom64.h>
 183               	#elif defined (__AVR_ATmega640__)
 184               	#  include <avr/iom640.h>
 185               	#elif defined (__AVR_ATmega644__) || defined (__AVR_ATmega644A__)
 186               	#  include <avr/iom644.h>
 187               	#elif defined (__AVR_ATmega644P__)
 188               	#  include <avr/iom644p.h>
 189               	#elif defined (__AVR_ATmega644PA__)
 190               	#  include <avr/iom644pa.h>
 191               	#elif defined (__AVR_ATmega645__) || defined (__AVR_ATmega645A__) || defined (__AVR_ATmega645P__)
 192               	#  include <avr/iom645.h>
 193               	#elif defined (__AVR_ATmega6450__) || defined (__AVR_ATmega6450A__) || defined (__AVR_ATmega6450P__
 194               	#  include <avr/iom6450.h>
 195               	#elif defined (__AVR_ATmega649__) || defined (__AVR_ATmega649A__)
 196               	#  include <avr/iom649.h>
 197               	#elif defined (__AVR_ATmega6490__) || defined (__AVR_ATmega6490A__) || defined (__AVR_ATmega6490P__
 198               	#  include <avr/iom6490.h>
 199               	#elif defined (__AVR_ATmega649P__)
 200               	#  include <avr/iom649p.h>
 201               	#elif defined (__AVR_ATmega64HVE__)
 202               	#  include <avr/iom64hve.h>
 203               	#elif defined (__AVR_ATmega103__)
 204               	#  include <avr/iom103.h>
 205               	#elif defined (__AVR_ATmega32__)
 206               	#  include <avr/iom32.h>
 207               	#elif defined (__AVR_ATmega323__)
 208               	#  include <avr/iom323.h>
 209               	#elif defined (__AVR_ATmega324P__) || defined (__AVR_ATmega324A__)
 210               	#  include <avr/iom324.h>
 211               	#elif defined (__AVR_ATmega324PA__)
 212               	#  include <avr/iom324pa.h>
 213               	#elif defined (__AVR_ATmega325__) || defined (__AVR_ATmega325A__)
 214               	#  include <avr/iom325.h>
 215               	#elif defined (__AVR_ATmega325P__)
 216               	#  include <avr/iom325.h>
 217               	#elif defined (__AVR_ATmega3250__) || defined (__AVR_ATmega3250A__)
 218               	#  include <avr/iom3250.h>
 219               	#elif defined (__AVR_ATmega3250P__)
 220               	#  include <avr/iom3250.h>
GAS LISTING /tmp/ccOpXWZF.s 			page 5


 221               	#elif defined (__AVR_ATmega328P__) || defined (__AVR_ATmega328__)
 222               	#  include <avr/iom328p.h>
 223               	#elif defined (__AVR_ATmega329__) || defined (__AVR_ATmega329A__)
 224               	#  include <avr/iom329.h>
 225               	#elif defined (__AVR_ATmega329P__) || defined (__AVR_ATmega329PA__)
 226               	#  include <avr/iom329.h>
 227               	#elif defined (__AVR_ATmega3290__) || defined (__AVR_ATmega3290A__)
 228               	#  include <avr/iom3290.h>
 229               	#elif defined (__AVR_ATmega3290P__)
 230               	#  include <avr/iom3290.h>
 231               	#elif defined (__AVR_ATmega32HVB__)
 232               	#  include <avr/iom32hvb.h>
 233               	#elif defined (__AVR_ATmega32HVBREVB__)
 234               	#  include <avr/iom32hvbrevb.h>
 235               	#elif defined (__AVR_ATmega406__)
 236               	#  include <avr/iom406.h>
 237               	#elif defined (__AVR_ATmega16__)
 238               	#  include <avr/iom16.h>
 239               	#elif defined (__AVR_ATmega16A__)
 240               	#  include <avr/iom16a.h>
 241               	#elif defined (__AVR_ATmega161__)
 242               	#  include <avr/iom161.h>
 243               	#elif defined (__AVR_ATmega162__)
 244               	#  include <avr/iom162.h>
 245               	#elif defined (__AVR_ATmega163__)
 246               	#  include <avr/iom163.h>
 247               	#elif defined (__AVR_ATmega164P__) || defined (__AVR_ATmega164A__)
 248               	#  include <avr/iom164.h>
 249               	#elif defined (__AVR_ATmega165__) || defined (__AVR_ATmega165A__)
 250               	#  include <avr/iom165.h>
 251               	#elif defined (__AVR_ATmega165P__)
 252               	#  include <avr/iom165p.h>
 253               	#elif defined (__AVR_ATmega168__) || defined (__AVR_ATmega168A__)
 254               	#  include <avr/iom168.h>
 255               	#elif defined (__AVR_ATmega168P__)
 256               	#  include <avr/iom168p.h>
 257               	#elif defined (__AVR_ATmega169__) || defined (__AVR_ATmega169A__)
 258               	#  include <avr/iom169.h>
 259               	#elif defined (__AVR_ATmega169P__)
 260               	#  include <avr/iom169p.h>
 261               	#elif defined (__AVR_ATmega169PA__)
 262               	#  include <avr/iom169pa.h>
 263               	#elif defined (__AVR_ATmega8HVA__)
 264               	#  include <avr/iom8hva.h>
 265               	#elif defined (__AVR_ATmega16HVA__)
 266               	#  include <avr/iom16hva.h>
 267               	#elif defined (__AVR_ATmega16HVA2__)
 268               	#  include <avr/iom16hva2.h>
 269               	#elif defined (__AVR_ATmega16HVB__)
 270               	#  include <avr/iom16hvb.h>
 271               	#elif defined (__AVR_ATmega16HVBREVB__)
 272               	#  include <avr/iom16hvbrevb.h>
 273               	#elif defined (__AVR_ATmega8__)
 274               	#  include <avr/iom8.h>
 275               	#elif defined (__AVR_ATmega48__) || defined (__AVR_ATmega48A__)
 276               	#  include <avr/iom48.h>
 277               	#elif defined (__AVR_ATmega48P__)
GAS LISTING /tmp/ccOpXWZF.s 			page 6


 278               	#  include <avr/iom48p.h>
 279               	#elif defined (__AVR_ATmega88__) || defined (__AVR_ATmega88A__)
 280               	#  include <avr/iom88.h>
 281               	#elif defined (__AVR_ATmega88P__)
 282               	#  include <avr/iom88p.h>
 283               	#elif defined (__AVR_ATmega88PA__)
 284               	#  include <avr/iom88pa.h>
 285               	#elif defined (__AVR_ATmega8515__)
 286               	#  include <avr/iom8515.h>
 287               	#elif defined (__AVR_ATmega8535__)
 288               	#  include <avr/iom8535.h>
 289               	#elif defined (__AVR_AT90S8535__)
 290               	#  include <avr/io8535.h>
 291               	#elif defined (__AVR_AT90C8534__)
 292               	#  include <avr/io8534.h>
 293               	#elif defined (__AVR_AT90S8515__)
 294               	#  include <avr/io8515.h>
 295               	#elif defined (__AVR_AT90S4434__)
 296               	#  include <avr/io4434.h>
 297               	#elif defined (__AVR_AT90S4433__)
 298               	#  include <avr/io4433.h>
 299               	#elif defined (__AVR_AT90S4414__)
 300               	#  include <avr/io4414.h>
 301               	#elif defined (__AVR_ATtiny22__)
 302               	#  include <avr/iotn22.h>
 303               	#elif defined (__AVR_ATtiny26__)
 304               	#  include <avr/iotn26.h>
 305               	#elif defined (__AVR_AT90S2343__)
 306               	#  include <avr/io2343.h>
 307               	#elif defined (__AVR_AT90S2333__)
 308               	#  include <avr/io2333.h>
 309               	#elif defined (__AVR_AT90S2323__)
 310               	#  include <avr/io2323.h>
 311               	#elif defined (__AVR_AT90S2313__)
 312               	#  include <avr/io2313.h>
 313               	#elif defined (__AVR_ATtiny4__)
 314               	#  include <avr/iotn4.h>
 315               	#elif defined (__AVR_ATtiny5__)
 316               	#  include <avr/iotn5.h>
 317               	#elif defined (__AVR_ATtiny9__)
 318               	#  include <avr/iotn9.h>
 319               	#elif defined (__AVR_ATtiny10__)
 320               	#  include <avr/iotn10.h>
 321               	#elif defined (__AVR_ATtiny20__)
 322               	#  include <avr/iotn20.h>
 323               	#elif defined (__AVR_ATtiny40__)
 324               	#  include <avr/iotn40.h>
 325               	#elif defined (__AVR_ATtiny2313__)
 326               	#  include <avr/iotn2313.h>
 327               	#elif defined (__AVR_ATtiny2313A__)
 328               	#  include <avr/iotn2313a.h>
 329               	#elif defined (__AVR_ATtiny13__)
 330               	#  include <avr/iotn13.h>
 331               	#elif defined (__AVR_ATtiny13A__)
 332               	#  include <avr/iotn13a.h>
 333               	#elif defined (__AVR_ATtiny25__)
 334               	#  include <avr/iotn25.h>
GAS LISTING /tmp/ccOpXWZF.s 			page 7


 335               	#elif defined (__AVR_ATtiny4313__)
 336               	#  include <avr/iotn4313.h>
 337               	#elif defined (__AVR_ATtiny45__)
 338               	#  include <avr/iotn45.h>
 339               	#elif defined (__AVR_ATtiny85__)
 340               	#  include <avr/iotn85.h>
   1               	/* Copyright (c) 2005, Joerg Wunsch
   2               	   All rights reserved.
   3               	
   4               	   Redistribution and use in source and binary forms, with or without
   5               	   modification, are permitted provided that the following conditions are met:
   6               	
   7               	   * Redistributions of source code must retain the above copyright
   8               	     notice, this list of conditions and the following disclaimer.
   9               	
  10               	   * Redistributions in binary form must reproduce the above copyright
  11               	     notice, this list of conditions and the following disclaimer in
  12               	     the documentation and/or other materials provided with the
  13               	     distribution.
  14               	
  15               	   * Neither the name of the copyright holders nor the names of
  16               	     contributors may be used to endorse or promote products derived
  17               	     from this software without specific prior written permission.
  18               	
  19               	  THIS SOFTWARE IS PROVIDED BY THE COPYRIGHT HOLDERS AND CONTRIBUTORS "AS IS"
  20               	  AND ANY EXPRESS OR IMPLIED WARRANTIES, INCLUDING, BUT NOT LIMITED TO, THE
  21               	  IMPLIED WARRANTIES OF MERCHANTABILITY AND FITNESS FOR A PARTICULAR PURPOSE
  22               	  ARE DISCLAIMED. IN NO EVENT SHALL THE COPYRIGHT OWNER OR CONTRIBUTORS BE
  23               	  LIABLE FOR ANY DIRECT, INDIRECT, INCIDENTAL, SPECIAL, EXEMPLARY, OR
  24               	  CONSEQUENTIAL DAMAGES (INCLUDING, BUT NOT LIMITED TO, PROCUREMENT OF
  25               	  SUBSTITUTE GOODS OR SERVICES; LOSS OF USE, DATA, OR PROFITS; OR BUSINESS
  26               	  INTERRUPTION) HOWEVER CAUSED AND ON ANY THEORY OF LIABILITY, WHETHER IN
  27               	  CONTRACT, STRICT LIABILITY, OR TORT (INCLUDING NEGLIGENCE OR OTHERWISE)
  28               	  ARISING IN ANY WAY OUT OF THE USE OF THIS SOFTWARE, EVEN IF ADVISED OF THE
  29               	  POSSIBILITY OF SUCH DAMAGE. */
  30               	
  31               	/* $Id: iotn85.h 2115 2010-04-05 23:19:53Z arcanum $ */
  32               	
  33               	/* avr/iotn85.h - definitions for ATtiny85 */
  34               	
  35               	#ifndef _AVR_IOTN85_H_
  36               	#define _AVR_IOTN85_H_ 1
  37               	
  38               	#include <avr/iotnx5.h>
   1               	/* Copyright (c) 2005,2007 Anatoly Sokolov
  39               	
 341               	#elif defined (__AVR_ATtiny24__)
 342               	#  include <avr/iotn24.h>
 343               	#elif defined (__AVR_ATtiny24A__)
 344               	#  include <avr/iotn24a.h>
 345               	#elif defined (__AVR_ATtiny44__)
 346               	#  include <avr/iotn44.h>
 347               	#elif defined (__AVR_ATtiny44A__)
 348               	#  include <avr/iotn44a.h>
 349               	#elif defined (__AVR_ATtiny84__)
 350               	#  include <avr/iotn84.h>
 351               	#elif defined (__AVR_ATtiny84A__)
GAS LISTING /tmp/ccOpXWZF.s 			page 8


 352               	#  include <avr/iotn84a.h>  
 353               	#elif defined (__AVR_ATtiny261__)
 354               	#  include <avr/iotn261.h>
 355               	#elif defined (__AVR_ATtiny261A__)
 356               	#  include <avr/iotn261a.h>
 357               	#elif defined (__AVR_ATtiny461__)
 358               	#  include <avr/iotn461.h>
 359               	#elif defined (__AVR_ATtiny461A__)
 360               	#  include <avr/iotn461a.h>
 361               	#elif defined (__AVR_ATtiny861__)
 362               	#  include <avr/iotn861.h>
 363               	#elif defined (__AVR_ATtiny861A__)
 364               	#  include <avr/iotn861a.h>
 365               	#elif defined (__AVR_ATtiny43U__)
 366               	#  include <avr/iotn43u.h>
 367               	#elif defined (__AVR_ATtiny48__)
 368               	#  include <avr/iotn48.h>
 369               	#elif defined (__AVR_ATtiny88__)
 370               	#  include <avr/iotn88.h>
 371               	#elif defined (__AVR_ATtiny87__)
 372               	#  include <avr/iotn87.h>
 373               	#elif defined (__AVR_ATtiny167__)
 374               	#  include <avr/iotn167.h>
 375               	#elif defined (__AVR_AT90SCR100__)
 376               	#  include <avr/io90scr100.h>
 377               	#elif defined (__AVR_ATxmega16A4__)
 378               	#  include <avr/iox16a4.h>
 379               	#elif defined (__AVR_ATxmega16D4__)
 380               	#  include <avr/iox16d4.h>
 381               	#elif defined (__AVR_ATxmega32A4__)
 382               	#  include <avr/iox32a4.h>
 383               	#elif defined (__AVR_ATxmega32D4__)
 384               	#  include <avr/iox32d4.h>
 385               	#elif defined (__AVR_ATxmega64A1__)
 386               	#  include <avr/iox64a1.h>
 387               	#elif defined (__AVR_ATxmega64A1U__)
 388               	#  include <avr/iox64a1u.h>
 389               	#elif defined (__AVR_ATxmega64A3__)
 390               	#  include <avr/iox64a3.h>
 391               	#elif defined (__AVR_ATxmega64D3__)
 392               	#  include <avr/iox64d3.h>
 393               	#elif defined (__AVR_ATxmega128A1__)
 394               	#  include <avr/iox128a1.h>
 395               	#elif defined (__AVR_ATxmega128A1U__)
 396               	#  include <avr/iox128a1u.h>
 397               	#elif defined (__AVR_ATxmega128A3__)
 398               	#  include <avr/iox128a3.h>
 399               	#elif defined (__AVR_ATxmega128D3__)
 400               	#  include <avr/iox128d3.h>
 401               	#elif defined (__AVR_ATxmega192A3__)
 402               	#  include <avr/iox192a3.h>
 403               	#elif defined (__AVR_ATxmega192D3__)
 404               	#  include <avr/iox192d3.h>
 405               	#elif defined (__AVR_ATxmega256A3__)
 406               	#  include <avr/iox256a3.h>
 407               	#elif defined (__AVR_ATxmega256A3B__)
 408               	#  include <avr/iox256a3b.h>
GAS LISTING /tmp/ccOpXWZF.s 			page 9


 409               	#elif defined (__AVR_ATxmega256D3__)
 410               	#  include <avr/iox256d3.h>
 411               	#elif defined (__AVR_ATA6289__)
 412               	#  include <avr/ioa6289.h>
 413               	/* avr1: the following only supported for assembler programs */
 414               	#elif defined (__AVR_ATtiny28__)
 415               	#  include <avr/iotn28.h>
 416               	#elif defined (__AVR_AT90S1200__)
 417               	#  include <avr/io1200.h>
 418               	#elif defined (__AVR_ATtiny15__)
 419               	#  include <avr/iotn15.h>
 420               	#elif defined (__AVR_ATtiny12__)
 421               	#  include <avr/iotn12.h>
 422               	#elif defined (__AVR_ATtiny11__)
 423               	#  include <avr/iotn11.h>
 424               	#elif defined (__AVR_M3000__)
 425               	#  include <avr/iom3000.h>
 426               	#else
 427               	#  if !defined(__COMPILING_AVR_LIBC__)
 428               	#    warning "device type not defined"
 429               	#  endif
 430               	#endif
 431               	
 432               	#include <avr/portpins.h>
   1               	/* Copyright (c) 2003  Theodore A. Roth
 433               	
 434               	#include <avr/common.h>
   1               	/* Copyright (c) 2007 Eric B. Weddington
 435               	
 436               	#include <avr/version.h>
   1               	/* Copyright (c) 2005, Joerg Wunsch                               -*- c -*-
 437               	
 438               	/* Include fuse.h after individual IO header files. */
 439               	#include <avr/fuse.h>
   1               	/* Copyright (c) 2007, Atmel Corporation
 440               	
 441               	/* Include lock.h after individual IO header files. */
 442               	#include <avr/lock.h>
   1               	/* Copyright (c) 2007, Atmel Corporation
 443               	
   5               	//; Warning: you must have whitespace before the ;
   6               	//; Don't worry, preamble and ethernet CRC are always added.
   7               	//; If you are sending a UDP packet, checksum will be handled for you, too :)
   8               	//; 
   9               	.global SendAPacket
  10               	SendAPacket:
  11:sendpack.S    **** 	eor r18, r18
  12:sendpack.S    **** 	eor r19, r19
  13:sendpack.S    **** 	eor r20, r20
  14:sendpack.S    **** 	ori r18, 0b00010101
  15:sendpack.S    **** 	ori r19, 0b00001101
  16:sendpack.S    **** 	ori r20, 0b00000101
  17:sendpack.S    **** 	out PORTB, r18
  18               		 // 55
  19:sendpack.S    **** 	out PORTB, r18
  20:sendpack.S    **** 	out PORTB, r19
  21:sendpack.S    **** 	out PORTB, r19
GAS LISTING /tmp/ccOpXWZF.s 			page 10


  22:sendpack.S    **** 	out PORTB, r18
  23:sendpack.S    **** 	out PORTB, r18
  24:sendpack.S    **** 	out PORTB, r19
  25:sendpack.S    **** 	out PORTB, r19
  26:sendpack.S    **** 	out PORTB, r18
  27:sendpack.S    **** 	out PORTB, r18
  28:sendpack.S    **** 	out PORTB, r19
  29:sendpack.S    **** 	out PORTB, r19
  30:sendpack.S    **** 	out PORTB, r18
  31:sendpack.S    **** 	out PORTB, r18
  32:sendpack.S    **** 	out PORTB, r19
  33:sendpack.S    **** 	out PORTB, r19
  34:sendpack.S    **** 	out PORTB, r18
  35               	
  36               		 // 55
  37:sendpack.S    **** 	out PORTB, r18
  38:sendpack.S    **** 	out PORTB, r19
  39:sendpack.S    **** 	out PORTB, r19
  40:sendpack.S    **** 	out PORTB, r18
  41:sendpack.S    **** 	out PORTB, r18
  42:sendpack.S    **** 	out PORTB, r19
  43:sendpack.S    **** 	out PORTB, r19
  44:sendpack.S    **** 	out PORTB, r18
  45:sendpack.S    **** 	out PORTB, r18
  46:sendpack.S    **** 	out PORTB, r19
  47:sendpack.S    **** 	out PORTB, r19
  48:sendpack.S    **** 	out PORTB, r18
  49:sendpack.S    **** 	out PORTB, r18
  50:sendpack.S    **** 	out PORTB, r19
  51:sendpack.S    **** 	out PORTB, r19
  52:sendpack.S    **** 	out PORTB, r18
  53               	
  54               		 // 55
  55:sendpack.S    **** 	out PORTB, r18
  56:sendpack.S    **** 	out PORTB, r19
  57:sendpack.S    **** 	out PORTB, r19
  58:sendpack.S    **** 	out PORTB, r18
  59:sendpack.S    **** 	out PORTB, r18
  60:sendpack.S    **** 	out PORTB, r19
  61:sendpack.S    **** 	out PORTB, r19
  62:sendpack.S    **** 	out PORTB, r18
  63:sendpack.S    **** 	out PORTB, r18
  64:sendpack.S    **** 	out PORTB, r19
  65:sendpack.S    **** 	out PORTB, r19
  66:sendpack.S    **** 	out PORTB, r18
  67:sendpack.S    **** 	out PORTB, r18
  68:sendpack.S    **** 	out PORTB, r19
  69:sendpack.S    **** 	out PORTB, r19
  70:sendpack.S    **** 	out PORTB, r18
  71               	
  72               		 // 55
  73:sendpack.S    **** 	out PORTB, r18
  74:sendpack.S    **** 	out PORTB, r19
  75:sendpack.S    **** 	out PORTB, r19
  76:sendpack.S    **** 	out PORTB, r18
  77:sendpack.S    **** 	out PORTB, r18
  78:sendpack.S    **** 	out PORTB, r19
GAS LISTING /tmp/ccOpXWZF.s 			page 11


  79:sendpack.S    **** 	out PORTB, r19
  80:sendpack.S    **** 	out PORTB, r18
  81:sendpack.S    **** 	out PORTB, r18
  82:sendpack.S    **** 	out PORTB, r19
  83:sendpack.S    **** 	out PORTB, r19
  84:sendpack.S    **** 	out PORTB, r18
  85:sendpack.S    **** 	out PORTB, r18
  86:sendpack.S    **** 	out PORTB, r19
  87:sendpack.S    **** 	out PORTB, r19
  88:sendpack.S    **** 	out PORTB, r18
  89               	
  90               		 // 55
  91:sendpack.S    **** 	out PORTB, r18
  92:sendpack.S    **** 	out PORTB, r19
  93:sendpack.S    **** 	out PORTB, r19
  94:sendpack.S    **** 	out PORTB, r18
  95:sendpack.S    **** 	out PORTB, r18
  96:sendpack.S    **** 	out PORTB, r19
  97:sendpack.S    **** 	out PORTB, r19
  98:sendpack.S    **** 	out PORTB, r18
  99:sendpack.S    **** 	out PORTB, r18
 100:sendpack.S    **** 	out PORTB, r19
 101:sendpack.S    **** 	out PORTB, r19
 102:sendpack.S    **** 	out PORTB, r18
 103:sendpack.S    **** 	out PORTB, r18
 104:sendpack.S    **** 	out PORTB, r19
 105:sendpack.S    **** 	out PORTB, r19
 106:sendpack.S    **** 	out PORTB, r18
 107               	
 108               		 // 55
 109:sendpack.S    **** 	out PORTB, r18
 110:sendpack.S    **** 	out PORTB, r19
 111:sendpack.S    **** 	out PORTB, r19
 112:sendpack.S    **** 	out PORTB, r18
 113:sendpack.S    **** 	out PORTB, r18
 114:sendpack.S    **** 	out PORTB, r19
 115:sendpack.S    **** 	out PORTB, r19
 116:sendpack.S    **** 	out PORTB, r18
 117:sendpack.S    **** 	out PORTB, r18
 118:sendpack.S    **** 	out PORTB, r19
 119:sendpack.S    **** 	out PORTB, r19
 120:sendpack.S    **** 	out PORTB, r18
 121:sendpack.S    **** 	out PORTB, r18
 122:sendpack.S    **** 	out PORTB, r19
 123:sendpack.S    **** 	out PORTB, r19
 124:sendpack.S    **** 	out PORTB, r18
 125               	
 126               		 // 55
 127:sendpack.S    **** 	out PORTB, r18
 128:sendpack.S    **** 	out PORTB, r19
 129:sendpack.S    **** 	out PORTB, r19
 130:sendpack.S    **** 	out PORTB, r18
 131:sendpack.S    **** 	out PORTB, r18
 132:sendpack.S    **** 	out PORTB, r19
 133:sendpack.S    **** 	out PORTB, r19
 134:sendpack.S    **** 	out PORTB, r18
 135:sendpack.S    **** 	out PORTB, r18
GAS LISTING /tmp/ccOpXWZF.s 			page 12


 136:sendpack.S    **** 	out PORTB, r19
 137:sendpack.S    **** 	out PORTB, r19
 138:sendpack.S    **** 	out PORTB, r18
 139:sendpack.S    **** 	out PORTB, r18
 140:sendpack.S    **** 	out PORTB, r19
 141:sendpack.S    **** 	out PORTB, r19
 142:sendpack.S    **** 	out PORTB, r18
 143               	
 144               		 // d5
 145:sendpack.S    **** 	out PORTB, r18
 146:sendpack.S    **** 	out PORTB, r19
 147:sendpack.S    **** 	out PORTB, r19
 148:sendpack.S    **** 	out PORTB, r18
 149:sendpack.S    **** 	out PORTB, r18
 150:sendpack.S    **** 	out PORTB, r19
 151:sendpack.S    **** 	out PORTB, r19
 152:sendpack.S    **** 	out PORTB, r18
 153:sendpack.S    **** 	out PORTB, r18
 154:sendpack.S    **** 	out PORTB, r19
 155:sendpack.S    **** 	out PORTB, r19
 156:sendpack.S    **** 	out PORTB, r18
 157:sendpack.S    **** 	out PORTB, r18
 158:sendpack.S    **** 	out PORTB, r19
 159:sendpack.S    **** 	out PORTB, r18
 160:sendpack.S    **** 	out PORTB, r19
 161               	
 162:sendpack.S    **** //;MAC TO
 163:sendpack.S    **** //;MAC FROM (Change this)
 164:sendpack.S    **** //; IP; 20-byte header
 165:sendpack.S    **** //;Length
 166:sendpack.S    **** //;Identification?
 167:sendpack.S    **** //;Flags & Fragment
 168:sendpack.S    **** //;TTL
 169:sendpack.S    **** //;UDP
 170:sendpack.S    **** //;CHECKSUM
 171:sendpack.S    **** //; Address From
 172:sendpack.S    **** //;Source port
 173:sendpack.S    **** //;Dest port
 174:sendpack.S    **** //;Length + Checksum
 175:sendpack.S    **** //;Payload
 176:sendpack.S    **** 	 // ff
 177:sendpack.S    **** 	out PORTB, r18
 178:sendpack.S    **** 	out PORTB, r19
 179:sendpack.S    **** 	out PORTB, r18
 180:sendpack.S    **** 	out PORTB, r19
 181:sendpack.S    **** 	out PORTB, r18
 182:sendpack.S    **** 	out PORTB, r19
 183:sendpack.S    **** 	out PORTB, r18
 184:sendpack.S    **** 	out PORTB, r19
 185:sendpack.S    **** 	out PORTB, r18
 186:sendpack.S    **** 	out PORTB, r19
 187:sendpack.S    **** 	out PORTB, r18
 188:sendpack.S    **** 	out PORTB, r19
 189:sendpack.S    **** 	out PORTB, r18
 190:sendpack.S    **** 	out PORTB, r19
 191:sendpack.S    **** 	out PORTB, r18
 192:sendpack.S    **** 	out PORTB, r19
GAS LISTING /tmp/ccOpXWZF.s 			page 13


 193               	
 194               		 // ff
 195:sendpack.S    **** 	out PORTB, r18
 196:sendpack.S    **** 	out PORTB, r19
 197:sendpack.S    **** 	out PORTB, r18
 198:sendpack.S    **** 	out PORTB, r19
 199:sendpack.S    **** 	out PORTB, r18
 200:sendpack.S    **** 	out PORTB, r19
 201:sendpack.S    **** 	out PORTB, r18
 202:sendpack.S    **** 	out PORTB, r19
 203:sendpack.S    **** 	out PORTB, r18
 204:sendpack.S    **** 	out PORTB, r19
 205:sendpack.S    **** 	out PORTB, r18
 206:sendpack.S    **** 	out PORTB, r19
 207:sendpack.S    **** 	out PORTB, r18
 208:sendpack.S    **** 	out PORTB, r19
 209:sendpack.S    **** 	out PORTB, r18
 210:sendpack.S    **** 	out PORTB, r19
 211               	
 212               		 // ff
 213:sendpack.S    **** 	out PORTB, r18
 214:sendpack.S    **** 	out PORTB, r19
 215:sendpack.S    **** 	out PORTB, r18
 216:sendpack.S    **** 	out PORTB, r19
 217:sendpack.S    **** 	out PORTB, r18
 218:sendpack.S    **** 	out PORTB, r19
 219:sendpack.S    **** 	out PORTB, r18
 220:sendpack.S    **** 	out PORTB, r19
 221:sendpack.S    **** 	out PORTB, r18
 222:sendpack.S    **** 	out PORTB, r19
 223:sendpack.S    **** 	out PORTB, r18
 224:sendpack.S    **** 	out PORTB, r19
 225:sendpack.S    **** 	out PORTB, r18
 226:sendpack.S    **** 	out PORTB, r19
 227:sendpack.S    **** 	out PORTB, r18
 228:sendpack.S    **** 	out PORTB, r19
 229               	
 230               		 // ff
 231:sendpack.S    **** 	out PORTB, r18
 232:sendpack.S    **** 	out PORTB, r19
 233:sendpack.S    **** 	out PORTB, r18
 234:sendpack.S    **** 	out PORTB, r19
 235:sendpack.S    **** 	out PORTB, r18
 236:sendpack.S    **** 	out PORTB, r19
 237:sendpack.S    **** 	out PORTB, r18
 238:sendpack.S    **** 	out PORTB, r19
 239:sendpack.S    **** 	out PORTB, r18
 240:sendpack.S    **** 	out PORTB, r19
 241:sendpack.S    **** 	out PORTB, r18
 242:sendpack.S    **** 	out PORTB, r19
 243:sendpack.S    **** 	out PORTB, r18
 244:sendpack.S    **** 	out PORTB, r19
 245:sendpack.S    **** 	out PORTB, r18
 246:sendpack.S    **** 	out PORTB, r19
 247               	
 248               		 // ff
 249:sendpack.S    **** 	out PORTB, r18
GAS LISTING /tmp/ccOpXWZF.s 			page 14


 250:sendpack.S    **** 	out PORTB, r19
 251:sendpack.S    **** 	out PORTB, r18
 252:sendpack.S    **** 	out PORTB, r19
 253:sendpack.S    **** 	out PORTB, r18
 254:sendpack.S    **** 	out PORTB, r19
 255:sendpack.S    **** 	out PORTB, r18
 256:sendpack.S    **** 	out PORTB, r19
 257:sendpack.S    **** 	out PORTB, r18
 258:sendpack.S    **** 	out PORTB, r19
 259:sendpack.S    **** 	out PORTB, r18
 260:sendpack.S    **** 	out PORTB, r19
 261:sendpack.S    **** 	out PORTB, r18
 262:sendpack.S    **** 	out PORTB, r19
 263:sendpack.S    **** 	out PORTB, r18
 264:sendpack.S    **** 	out PORTB, r19
 265               	
 266               		 // ff
 267:sendpack.S    **** 	out PORTB, r18
 268:sendpack.S    **** 	out PORTB, r19
 269:sendpack.S    **** 	out PORTB, r18
 270:sendpack.S    **** 	out PORTB, r19
 271:sendpack.S    **** 	out PORTB, r18
 272:sendpack.S    **** 	out PORTB, r19
 273:sendpack.S    **** 	out PORTB, r18
 274:sendpack.S    **** 	out PORTB, r19
 275:sendpack.S    **** 	out PORTB, r18
 276:sendpack.S    **** 	out PORTB, r19
 277:sendpack.S    **** 	out PORTB, r18
 278:sendpack.S    **** 	out PORTB, r19
 279:sendpack.S    **** 	out PORTB, r18
 280:sendpack.S    **** 	out PORTB, r19
 281:sendpack.S    **** 	out PORTB, r18
 282:sendpack.S    **** 	out PORTB, r19
 283               	
 284               		 // 00
 285:sendpack.S    **** 	out PORTB, r19
 286:sendpack.S    **** 	out PORTB, r18
 287:sendpack.S    **** 	out PORTB, r19
 288:sendpack.S    **** 	out PORTB, r18
 289:sendpack.S    **** 	out PORTB, r19
 290:sendpack.S    **** 	out PORTB, r18
 291:sendpack.S    **** 	out PORTB, r19
 292:sendpack.S    **** 	out PORTB, r18
 293:sendpack.S    **** 	out PORTB, r19
 294:sendpack.S    **** 	out PORTB, r18
 295:sendpack.S    **** 	out PORTB, r19
 296:sendpack.S    **** 	out PORTB, r18
 297:sendpack.S    **** 	out PORTB, r19
 298:sendpack.S    **** 	out PORTB, r18
 299:sendpack.S    **** 	out PORTB, r19
 300:sendpack.S    **** 	out PORTB, r18
 301               	
 302               		 // 55
 303:sendpack.S    **** 	out PORTB, r18
 304:sendpack.S    **** 	out PORTB, r19
 305:sendpack.S    **** 	out PORTB, r19
 306:sendpack.S    **** 	out PORTB, r18
GAS LISTING /tmp/ccOpXWZF.s 			page 15


 307:sendpack.S    **** 	out PORTB, r18
 308:sendpack.S    **** 	out PORTB, r19
 309:sendpack.S    **** 	out PORTB, r19
 310:sendpack.S    **** 	out PORTB, r18
 311:sendpack.S    **** 	out PORTB, r18
 312:sendpack.S    **** 	out PORTB, r19
 313:sendpack.S    **** 	out PORTB, r19
 314:sendpack.S    **** 	out PORTB, r18
 315:sendpack.S    **** 	out PORTB, r18
 316:sendpack.S    **** 	out PORTB, r19
 317:sendpack.S    **** 	out PORTB, r19
 318:sendpack.S    **** 	out PORTB, r18
 319               	
 320               		 // 00
 321:sendpack.S    **** 	out PORTB, r19
 322:sendpack.S    **** 	out PORTB, r18
 323:sendpack.S    **** 	out PORTB, r19
 324:sendpack.S    **** 	out PORTB, r18
 325:sendpack.S    **** 	out PORTB, r19
 326:sendpack.S    **** 	out PORTB, r18
 327:sendpack.S    **** 	out PORTB, r19
 328:sendpack.S    **** 	out PORTB, r18
 329:sendpack.S    **** 	out PORTB, r19
 330:sendpack.S    **** 	out PORTB, r18
 331:sendpack.S    **** 	out PORTB, r19
 332:sendpack.S    **** 	out PORTB, r18
 333:sendpack.S    **** 	out PORTB, r19
 334:sendpack.S    **** 	out PORTB, r18
 335:sendpack.S    **** 	out PORTB, r19
 336:sendpack.S    **** 	out PORTB, r18
 337               	
 338               		 // 55
 339:sendpack.S    **** 	out PORTB, r18
 340:sendpack.S    **** 	out PORTB, r19
 341:sendpack.S    **** 	out PORTB, r19
 342:sendpack.S    **** 	out PORTB, r18
 343:sendpack.S    **** 	out PORTB, r18
 344:sendpack.S    **** 	out PORTB, r19
 345:sendpack.S    **** 	out PORTB, r19
 346:sendpack.S    **** 	out PORTB, r18
 347:sendpack.S    **** 	out PORTB, r18
 348:sendpack.S    **** 	out PORTB, r19
 349:sendpack.S    **** 	out PORTB, r19
 350:sendpack.S    **** 	out PORTB, r18
 351:sendpack.S    **** 	out PORTB, r18
 352:sendpack.S    **** 	out PORTB, r19
 353:sendpack.S    **** 	out PORTB, r19
 354:sendpack.S    **** 	out PORTB, r18
 355               	
 356               		 // 00
 357:sendpack.S    **** 	out PORTB, r19
 358:sendpack.S    **** 	out PORTB, r18
 359:sendpack.S    **** 	out PORTB, r19
 360:sendpack.S    **** 	out PORTB, r18
 361:sendpack.S    **** 	out PORTB, r19
 362:sendpack.S    **** 	out PORTB, r18
 363:sendpack.S    **** 	out PORTB, r19
GAS LISTING /tmp/ccOpXWZF.s 			page 16


 364:sendpack.S    **** 	out PORTB, r18
 365:sendpack.S    **** 	out PORTB, r19
 366:sendpack.S    **** 	out PORTB, r18
 367:sendpack.S    **** 	out PORTB, r19
 368:sendpack.S    **** 	out PORTB, r18
 369:sendpack.S    **** 	out PORTB, r19
 370:sendpack.S    **** 	out PORTB, r18
 371:sendpack.S    **** 	out PORTB, r19
 372:sendpack.S    **** 	out PORTB, r18
 373               	
 374               		 // 55
 375:sendpack.S    **** 	out PORTB, r18
 376:sendpack.S    **** 	out PORTB, r19
 377:sendpack.S    **** 	out PORTB, r19
 378:sendpack.S    **** 	out PORTB, r18
 379:sendpack.S    **** 	out PORTB, r18
 380:sendpack.S    **** 	out PORTB, r19
 381:sendpack.S    **** 	out PORTB, r19
 382:sendpack.S    **** 	out PORTB, r18
 383:sendpack.S    **** 	out PORTB, r18
 384:sendpack.S    **** 	out PORTB, r19
 385:sendpack.S    **** 	out PORTB, r19
 386:sendpack.S    **** 	out PORTB, r18
 387:sendpack.S    **** 	out PORTB, r18
 388:sendpack.S    **** 	out PORTB, r19
 389:sendpack.S    **** 	out PORTB, r19
 390:sendpack.S    **** 	out PORTB, r18
 391               	
 392               		 // 08
 393:sendpack.S    **** 	out PORTB, r19
 394:sendpack.S    **** 	out PORTB, r18
 395:sendpack.S    **** 	out PORTB, r19
 396:sendpack.S    **** 	out PORTB, r18
 397:sendpack.S    **** 	out PORTB, r19
 398:sendpack.S    **** 	out PORTB, r18
 399:sendpack.S    **** 	out PORTB, r18
 400:sendpack.S    **** 	out PORTB, r19
 401:sendpack.S    **** 	out PORTB, r19
 402:sendpack.S    **** 	out PORTB, r18
 403:sendpack.S    **** 	out PORTB, r19
 404:sendpack.S    **** 	out PORTB, r18
 405:sendpack.S    **** 	out PORTB, r19
 406:sendpack.S    **** 	out PORTB, r18
 407:sendpack.S    **** 	out PORTB, r19
 408:sendpack.S    **** 	out PORTB, r18
 409               	
 410               		 // 00
 411:sendpack.S    **** 	out PORTB, r19
 412:sendpack.S    **** 	out PORTB, r18
 413:sendpack.S    **** 	out PORTB, r19
 414:sendpack.S    **** 	out PORTB, r18
 415:sendpack.S    **** 	out PORTB, r19
 416:sendpack.S    **** 	out PORTB, r18
 417:sendpack.S    **** 	out PORTB, r19
 418:sendpack.S    **** 	out PORTB, r18
 419:sendpack.S    **** 	out PORTB, r19
 420:sendpack.S    **** 	out PORTB, r18
GAS LISTING /tmp/ccOpXWZF.s 			page 17


 421:sendpack.S    **** 	out PORTB, r19
 422:sendpack.S    **** 	out PORTB, r18
 423:sendpack.S    **** 	out PORTB, r19
 424:sendpack.S    **** 	out PORTB, r18
 425:sendpack.S    **** 	out PORTB, r19
 426:sendpack.S    **** 	out PORTB, r18
 427               	
 428               		 // 45
 429:sendpack.S    **** 	out PORTB, r18
 430:sendpack.S    **** 	out PORTB, r19
 431:sendpack.S    **** 	out PORTB, r19
 432:sendpack.S    **** 	out PORTB, r18
 433:sendpack.S    **** 	out PORTB, r18
 434:sendpack.S    **** 	out PORTB, r19
 435:sendpack.S    **** 	out PORTB, r19
 436:sendpack.S    **** 	out PORTB, r18
 437:sendpack.S    **** 	out PORTB, r19
 438:sendpack.S    **** 	out PORTB, r18
 439:sendpack.S    **** 	out PORTB, r19
 440:sendpack.S    **** 	out PORTB, r18
 441:sendpack.S    **** 	out PORTB, r18
 442:sendpack.S    **** 	out PORTB, r19
 443:sendpack.S    **** 	out PORTB, r19
 444:sendpack.S    **** 	out PORTB, r18
 445               	
 446               		 // 00
 447:sendpack.S    **** 	out PORTB, r19
 448:sendpack.S    **** 	out PORTB, r18
 449:sendpack.S    **** 	out PORTB, r19
 450:sendpack.S    **** 	out PORTB, r18
 451:sendpack.S    **** 	out PORTB, r19
 452:sendpack.S    **** 	out PORTB, r18
 453:sendpack.S    **** 	out PORTB, r19
 454:sendpack.S    **** 	out PORTB, r18
 455:sendpack.S    **** 	out PORTB, r19
 456:sendpack.S    **** 	out PORTB, r18
 457:sendpack.S    **** 	out PORTB, r19
 458:sendpack.S    **** 	out PORTB, r18
 459:sendpack.S    **** 	out PORTB, r19
 460:sendpack.S    **** 	out PORTB, r18
 461:sendpack.S    **** 	out PORTB, r19
 462:sendpack.S    **** 	out PORTB, r18
 463               	
 464               		 // 00
 465:sendpack.S    **** 	out PORTB, r19
 466:sendpack.S    **** 	out PORTB, r18
 467:sendpack.S    **** 	out PORTB, r19
 468:sendpack.S    **** 	out PORTB, r18
 469:sendpack.S    **** 	out PORTB, r19
 470:sendpack.S    **** 	out PORTB, r18
 471:sendpack.S    **** 	out PORTB, r19
 472:sendpack.S    **** 	out PORTB, r18
 473:sendpack.S    **** 	out PORTB, r19
 474:sendpack.S    **** 	out PORTB, r18
 475:sendpack.S    **** 	out PORTB, r19
 476:sendpack.S    **** 	out PORTB, r18
 477:sendpack.S    **** 	out PORTB, r19
GAS LISTING /tmp/ccOpXWZF.s 			page 18


 478:sendpack.S    **** 	out PORTB, r18
 479:sendpack.S    **** 	out PORTB, r19
 480:sendpack.S    **** 	out PORTB, r18
 481               	
 482               		 // 2e
 483:sendpack.S    **** 	out PORTB, r19
 484:sendpack.S    **** 	out PORTB, r18
 485:sendpack.S    **** 	out PORTB, r18
 486:sendpack.S    **** 	out PORTB, r19
 487:sendpack.S    **** 	out PORTB, r18
 488:sendpack.S    **** 	out PORTB, r19
 489:sendpack.S    **** 	out PORTB, r18
 490:sendpack.S    **** 	out PORTB, r19
 491:sendpack.S    **** 	out PORTB, r19
 492:sendpack.S    **** 	out PORTB, r18
 493:sendpack.S    **** 	out PORTB, r18
 494:sendpack.S    **** 	out PORTB, r19
 495:sendpack.S    **** 	out PORTB, r19
 496:sendpack.S    **** 	out PORTB, r18
 497:sendpack.S    **** 	out PORTB, r19
 498:sendpack.S    **** 	out PORTB, r18
 499               	
 500               		 // b3
 501:sendpack.S    **** 	out PORTB, r18
 502:sendpack.S    **** 	out PORTB, r19
 503:sendpack.S    **** 	out PORTB, r18
 504:sendpack.S    **** 	out PORTB, r19
 505:sendpack.S    **** 	out PORTB, r19
 506:sendpack.S    **** 	out PORTB, r18
 507:sendpack.S    **** 	out PORTB, r19
 508:sendpack.S    **** 	out PORTB, r18
 509:sendpack.S    **** 	out PORTB, r18
 510:sendpack.S    **** 	out PORTB, r19
 511:sendpack.S    **** 	out PORTB, r18
 512:sendpack.S    **** 	out PORTB, r19
 513:sendpack.S    **** 	out PORTB, r19
 514:sendpack.S    **** 	out PORTB, r18
 515:sendpack.S    **** 	out PORTB, r18
 516:sendpack.S    **** 	out PORTB, r19
 517               	
 518               		 // fe
 519:sendpack.S    **** 	out PORTB, r19
 520:sendpack.S    **** 	out PORTB, r18
 521:sendpack.S    **** 	out PORTB, r18
 522:sendpack.S    **** 	out PORTB, r19
 523:sendpack.S    **** 	out PORTB, r18
 524:sendpack.S    **** 	out PORTB, r19
 525:sendpack.S    **** 	out PORTB, r18
 526:sendpack.S    **** 	out PORTB, r19
 527:sendpack.S    **** 	out PORTB, r18
 528:sendpack.S    **** 	out PORTB, r19
 529:sendpack.S    **** 	out PORTB, r18
 530:sendpack.S    **** 	out PORTB, r19
 531:sendpack.S    **** 	out PORTB, r18
 532:sendpack.S    **** 	out PORTB, r19
 533:sendpack.S    **** 	out PORTB, r18
 534:sendpack.S    **** 	out PORTB, r19
GAS LISTING /tmp/ccOpXWZF.s 			page 19


 535               	
 536               		 // 00
 537:sendpack.S    **** 	out PORTB, r19
 538:sendpack.S    **** 	out PORTB, r18
 539:sendpack.S    **** 	out PORTB, r19
 540:sendpack.S    **** 	out PORTB, r18
 541:sendpack.S    **** 	out PORTB, r19
 542:sendpack.S    **** 	out PORTB, r18
 543:sendpack.S    **** 	out PORTB, r19
 544:sendpack.S    **** 	out PORTB, r18
 545:sendpack.S    **** 	out PORTB, r19
 546:sendpack.S    **** 	out PORTB, r18
 547:sendpack.S    **** 	out PORTB, r19
 548:sendpack.S    **** 	out PORTB, r18
 549:sendpack.S    **** 	out PORTB, r19
 550:sendpack.S    **** 	out PORTB, r18
 551:sendpack.S    **** 	out PORTB, r19
 552:sendpack.S    **** 	out PORTB, r18
 553               	
 554               		 // 00
 555:sendpack.S    **** 	out PORTB, r19
 556:sendpack.S    **** 	out PORTB, r18
 557:sendpack.S    **** 	out PORTB, r19
 558:sendpack.S    **** 	out PORTB, r18
 559:sendpack.S    **** 	out PORTB, r19
 560:sendpack.S    **** 	out PORTB, r18
 561:sendpack.S    **** 	out PORTB, r19
 562:sendpack.S    **** 	out PORTB, r18
 563:sendpack.S    **** 	out PORTB, r19
 564:sendpack.S    **** 	out PORTB, r18
 565:sendpack.S    **** 	out PORTB, r19
 566:sendpack.S    **** 	out PORTB, r18
 567:sendpack.S    **** 	out PORTB, r19
 568:sendpack.S    **** 	out PORTB, r18
 569:sendpack.S    **** 	out PORTB, r19
 570:sendpack.S    **** 	out PORTB, r18
 571               	
 572               		 // 80
 573:sendpack.S    **** 	out PORTB, r19
 574:sendpack.S    **** 	out PORTB, r18
 575:sendpack.S    **** 	out PORTB, r19
 576:sendpack.S    **** 	out PORTB, r18
 577:sendpack.S    **** 	out PORTB, r19
 578:sendpack.S    **** 	out PORTB, r18
 579:sendpack.S    **** 	out PORTB, r19
 580:sendpack.S    **** 	out PORTB, r18
 581:sendpack.S    **** 	out PORTB, r19
 582:sendpack.S    **** 	out PORTB, r18
 583:sendpack.S    **** 	out PORTB, r19
 584:sendpack.S    **** 	out PORTB, r18
 585:sendpack.S    **** 	out PORTB, r19
 586:sendpack.S    **** 	out PORTB, r18
 587:sendpack.S    **** 	out PORTB, r18
 588:sendpack.S    **** 	out PORTB, r19
 589               	
 590               		 // 11
 591:sendpack.S    **** 	out PORTB, r18
GAS LISTING /tmp/ccOpXWZF.s 			page 20


 592:sendpack.S    **** 	out PORTB, r19
 593:sendpack.S    **** 	out PORTB, r19
 594:sendpack.S    **** 	out PORTB, r18
 595:sendpack.S    **** 	out PORTB, r19
 596:sendpack.S    **** 	out PORTB, r18
 597:sendpack.S    **** 	out PORTB, r19
 598:sendpack.S    **** 	out PORTB, r18
 599:sendpack.S    **** 	out PORTB, r18
 600:sendpack.S    **** 	out PORTB, r19
 601:sendpack.S    **** 	out PORTB, r19
 602:sendpack.S    **** 	out PORTB, r18
 603:sendpack.S    **** 	out PORTB, r19
 604:sendpack.S    **** 	out PORTB, r18
 605:sendpack.S    **** 	out PORTB, r19
 606:sendpack.S    **** 	out PORTB, r18
 607               	
 608               		 // c5
 609:sendpack.S    **** 	out PORTB, r18
 610:sendpack.S    **** 	out PORTB, r19
 611:sendpack.S    **** 	out PORTB, r19
 612:sendpack.S    **** 	out PORTB, r18
 613:sendpack.S    **** 	out PORTB, r18
 614:sendpack.S    **** 	out PORTB, r19
 615:sendpack.S    **** 	out PORTB, r19
 616:sendpack.S    **** 	out PORTB, r18
 617:sendpack.S    **** 	out PORTB, r19
 618:sendpack.S    **** 	out PORTB, r18
 619:sendpack.S    **** 	out PORTB, r19
 620:sendpack.S    **** 	out PORTB, r18
 621:sendpack.S    **** 	out PORTB, r18
 622:sendpack.S    **** 	out PORTB, r19
 623:sendpack.S    **** 	out PORTB, r18
 624:sendpack.S    **** 	out PORTB, r19
 625               	
 626               		 // b1
 627:sendpack.S    **** 	out PORTB, r18
 628:sendpack.S    **** 	out PORTB, r19
 629:sendpack.S    **** 	out PORTB, r19
 630:sendpack.S    **** 	out PORTB, r18
 631:sendpack.S    **** 	out PORTB, r19
 632:sendpack.S    **** 	out PORTB, r18
 633:sendpack.S    **** 	out PORTB, r19
 634:sendpack.S    **** 	out PORTB, r18
 635:sendpack.S    **** 	out PORTB, r18
 636:sendpack.S    **** 	out PORTB, r19
 637:sendpack.S    **** 	out PORTB, r18
 638:sendpack.S    **** 	out PORTB, r19
 639:sendpack.S    **** 	out PORTB, r19
 640:sendpack.S    **** 	out PORTB, r18
 641:sendpack.S    **** 	out PORTB, r18
 642:sendpack.S    **** 	out PORTB, r19
 643               	
 644               		 // c0
 645:sendpack.S    **** 	out PORTB, r19
 646:sendpack.S    **** 	out PORTB, r18
 647:sendpack.S    **** 	out PORTB, r19
 648:sendpack.S    **** 	out PORTB, r18
GAS LISTING /tmp/ccOpXWZF.s 			page 21


 649:sendpack.S    **** 	out PORTB, r19
 650:sendpack.S    **** 	out PORTB, r18
 651:sendpack.S    **** 	out PORTB, r19
 652:sendpack.S    **** 	out PORTB, r18
 653:sendpack.S    **** 	out PORTB, r19
 654:sendpack.S    **** 	out PORTB, r18
 655:sendpack.S    **** 	out PORTB, r19
 656:sendpack.S    **** 	out PORTB, r18
 657:sendpack.S    **** 	out PORTB, r18
 658:sendpack.S    **** 	out PORTB, r19
 659:sendpack.S    **** 	out PORTB, r18
 660:sendpack.S    **** 	out PORTB, r19
 661               	
 662               		 // a8
 663:sendpack.S    **** 	out PORTB, r19
 664:sendpack.S    **** 	out PORTB, r18
 665:sendpack.S    **** 	out PORTB, r19
 666:sendpack.S    **** 	out PORTB, r18
 667:sendpack.S    **** 	out PORTB, r19
 668:sendpack.S    **** 	out PORTB, r18
 669:sendpack.S    **** 	out PORTB, r18
 670:sendpack.S    **** 	out PORTB, r19
 671:sendpack.S    **** 	out PORTB, r19
 672:sendpack.S    **** 	out PORTB, r18
 673:sendpack.S    **** 	out PORTB, r18
 674:sendpack.S    **** 	out PORTB, r19
 675:sendpack.S    **** 	out PORTB, r19
 676:sendpack.S    **** 	out PORTB, r18
 677:sendpack.S    **** 	out PORTB, r18
 678:sendpack.S    **** 	out PORTB, r19
 679               	
 680               		 // 00
 681:sendpack.S    **** 	out PORTB, r19
 682:sendpack.S    **** 	out PORTB, r18
 683:sendpack.S    **** 	out PORTB, r19
 684:sendpack.S    **** 	out PORTB, r18
 685:sendpack.S    **** 	out PORTB, r19
 686:sendpack.S    **** 	out PORTB, r18
 687:sendpack.S    **** 	out PORTB, r19
 688:sendpack.S    **** 	out PORTB, r18
 689:sendpack.S    **** 	out PORTB, r19
 690:sendpack.S    **** 	out PORTB, r18
 691:sendpack.S    **** 	out PORTB, r19
 692:sendpack.S    **** 	out PORTB, r18
 693:sendpack.S    **** 	out PORTB, r19
 694:sendpack.S    **** 	out PORTB, r18
 695:sendpack.S    **** 	out PORTB, r19
 696:sendpack.S    **** 	out PORTB, r18
 697               	
 698               		 // 67
 699:sendpack.S    **** 	out PORTB, r18
 700:sendpack.S    **** 	out PORTB, r19
 701:sendpack.S    **** 	out PORTB, r18
 702:sendpack.S    **** 	out PORTB, r19
 703:sendpack.S    **** 	out PORTB, r18
 704:sendpack.S    **** 	out PORTB, r19
 705:sendpack.S    **** 	out PORTB, r19
GAS LISTING /tmp/ccOpXWZF.s 			page 22


 706:sendpack.S    **** 	out PORTB, r18
 707:sendpack.S    **** 	out PORTB, r19
 708:sendpack.S    **** 	out PORTB, r18
 709:sendpack.S    **** 	out PORTB, r18
 710:sendpack.S    **** 	out PORTB, r19
 711:sendpack.S    **** 	out PORTB, r18
 712:sendpack.S    **** 	out PORTB, r19
 713:sendpack.S    **** 	out PORTB, r19
 714:sendpack.S    **** 	out PORTB, r18
 715               	
 716               		 // ff
 717:sendpack.S    **** 	out PORTB, r18
 718:sendpack.S    **** 	out PORTB, r19
 719:sendpack.S    **** 	out PORTB, r18
 720:sendpack.S    **** 	out PORTB, r19
 721:sendpack.S    **** 	out PORTB, r18
 722:sendpack.S    **** 	out PORTB, r19
 723:sendpack.S    **** 	out PORTB, r18
 724:sendpack.S    **** 	out PORTB, r19
 725:sendpack.S    **** 	out PORTB, r18
 726:sendpack.S    **** 	out PORTB, r19
 727:sendpack.S    **** 	out PORTB, r18
 728:sendpack.S    **** 	out PORTB, r19
 729:sendpack.S    **** 	out PORTB, r18
 730:sendpack.S    **** 	out PORTB, r19
 731:sendpack.S    **** 	out PORTB, r18
 732:sendpack.S    **** 	out PORTB, r19
 733               	
 734               		 // ff
 735:sendpack.S    **** 	out PORTB, r18
 736:sendpack.S    **** 	out PORTB, r19
 737:sendpack.S    **** 	out PORTB, r18
 738:sendpack.S    **** 	out PORTB, r19
 739:sendpack.S    **** 	out PORTB, r18
 740:sendpack.S    **** 	out PORTB, r19
 741:sendpack.S    **** 	out PORTB, r18
 742:sendpack.S    **** 	out PORTB, r19
 743:sendpack.S    **** 	out PORTB, r18
 744:sendpack.S    **** 	out PORTB, r19
 745:sendpack.S    **** 	out PORTB, r18
 746:sendpack.S    **** 	out PORTB, r19
 747:sendpack.S    **** 	out PORTB, r18
 748:sendpack.S    **** 	out PORTB, r19
 749:sendpack.S    **** 	out PORTB, r18
 750:sendpack.S    **** 	out PORTB, r19
 751               	
 752               		 // ff
 753:sendpack.S    **** 	out PORTB, r18
 754:sendpack.S    **** 	out PORTB, r19
 755:sendpack.S    **** 	out PORTB, r18
 756:sendpack.S    **** 	out PORTB, r19
 757:sendpack.S    **** 	out PORTB, r18
 758:sendpack.S    **** 	out PORTB, r19
 759:sendpack.S    **** 	out PORTB, r18
 760:sendpack.S    **** 	out PORTB, r19
 761:sendpack.S    **** 	out PORTB, r18
 762:sendpack.S    **** 	out PORTB, r19
GAS LISTING /tmp/ccOpXWZF.s 			page 23


 763:sendpack.S    **** 	out PORTB, r18
 764:sendpack.S    **** 	out PORTB, r19
 765:sendpack.S    **** 	out PORTB, r18
 766:sendpack.S    **** 	out PORTB, r19
 767:sendpack.S    **** 	out PORTB, r18
 768:sendpack.S    **** 	out PORTB, r19
 769               	
 770               		 // ff
 771:sendpack.S    **** 	out PORTB, r18
 772:sendpack.S    **** 	out PORTB, r19
 773:sendpack.S    **** 	out PORTB, r18
 774:sendpack.S    **** 	out PORTB, r19
 775:sendpack.S    **** 	out PORTB, r18
 776:sendpack.S    **** 	out PORTB, r19
 777:sendpack.S    **** 	out PORTB, r18
 778:sendpack.S    **** 	out PORTB, r19
 779:sendpack.S    **** 	out PORTB, r18
 780:sendpack.S    **** 	out PORTB, r19
 781:sendpack.S    **** 	out PORTB, r18
 782:sendpack.S    **** 	out PORTB, r19
 783:sendpack.S    **** 	out PORTB, r18
 784:sendpack.S    **** 	out PORTB, r19
 785:sendpack.S    **** 	out PORTB, r18
 786:sendpack.S    **** 	out PORTB, r19
 787               	
 788               		 // 04
 789:sendpack.S    **** 	out PORTB, r19
 790:sendpack.S    **** 	out PORTB, r18
 791:sendpack.S    **** 	out PORTB, r19
 792:sendpack.S    **** 	out PORTB, r18
 793:sendpack.S    **** 	out PORTB, r18
 794:sendpack.S    **** 	out PORTB, r19
 795:sendpack.S    **** 	out PORTB, r19
 796:sendpack.S    **** 	out PORTB, r18
 797:sendpack.S    **** 	out PORTB, r19
 798:sendpack.S    **** 	out PORTB, r18
 799:sendpack.S    **** 	out PORTB, r19
 800:sendpack.S    **** 	out PORTB, r18
 801:sendpack.S    **** 	out PORTB, r19
 802:sendpack.S    **** 	out PORTB, r18
 803:sendpack.S    **** 	out PORTB, r19
 804:sendpack.S    **** 	out PORTB, r18
 805               	
 806               		 // 00
 807:sendpack.S    **** 	out PORTB, r19
 808:sendpack.S    **** 	out PORTB, r18
 809:sendpack.S    **** 	out PORTB, r19
 810:sendpack.S    **** 	out PORTB, r18
 811:sendpack.S    **** 	out PORTB, r19
 812:sendpack.S    **** 	out PORTB, r18
 813:sendpack.S    **** 	out PORTB, r19
 814:sendpack.S    **** 	out PORTB, r18
 815:sendpack.S    **** 	out PORTB, r19
 816:sendpack.S    **** 	out PORTB, r18
 817:sendpack.S    **** 	out PORTB, r19
 818:sendpack.S    **** 	out PORTB, r18
 819:sendpack.S    **** 	out PORTB, r19
GAS LISTING /tmp/ccOpXWZF.s 			page 24


 820:sendpack.S    **** 	out PORTB, r18
 821:sendpack.S    **** 	out PORTB, r19
 822:sendpack.S    **** 	out PORTB, r18
 823               	
 824               		 // 34
 825:sendpack.S    **** 	out PORTB, r19
 826:sendpack.S    **** 	out PORTB, r18
 827:sendpack.S    **** 	out PORTB, r19
 828:sendpack.S    **** 	out PORTB, r18
 829:sendpack.S    **** 	out PORTB, r18
 830:sendpack.S    **** 	out PORTB, r19
 831:sendpack.S    **** 	out PORTB, r19
 832:sendpack.S    **** 	out PORTB, r18
 833:sendpack.S    **** 	out PORTB, r18
 834:sendpack.S    **** 	out PORTB, r19
 835:sendpack.S    **** 	out PORTB, r18
 836:sendpack.S    **** 	out PORTB, r19
 837:sendpack.S    **** 	out PORTB, r19
 838:sendpack.S    **** 	out PORTB, r18
 839:sendpack.S    **** 	out PORTB, r19
 840:sendpack.S    **** 	out PORTB, r18
 841               	
 842               		 // 00
 843:sendpack.S    **** 	out PORTB, r19
 844:sendpack.S    **** 	out PORTB, r18
 845:sendpack.S    **** 	out PORTB, r19
 846:sendpack.S    **** 	out PORTB, r18
 847:sendpack.S    **** 	out PORTB, r19
 848:sendpack.S    **** 	out PORTB, r18
 849:sendpack.S    **** 	out PORTB, r19
 850:sendpack.S    **** 	out PORTB, r18
 851:sendpack.S    **** 	out PORTB, r19
 852:sendpack.S    **** 	out PORTB, r18
 853:sendpack.S    **** 	out PORTB, r19
 854:sendpack.S    **** 	out PORTB, r18
 855:sendpack.S    **** 	out PORTB, r19
 856:sendpack.S    **** 	out PORTB, r18
 857:sendpack.S    **** 	out PORTB, r19
 858:sendpack.S    **** 	out PORTB, r18
 859               	
 860               		 // 00
 861:sendpack.S    **** 	out PORTB, r19
 862:sendpack.S    **** 	out PORTB, r18
 863:sendpack.S    **** 	out PORTB, r19
 864:sendpack.S    **** 	out PORTB, r18
 865:sendpack.S    **** 	out PORTB, r19
 866:sendpack.S    **** 	out PORTB, r18
 867:sendpack.S    **** 	out PORTB, r19
 868:sendpack.S    **** 	out PORTB, r18
 869:sendpack.S    **** 	out PORTB, r19
 870:sendpack.S    **** 	out PORTB, r18
 871:sendpack.S    **** 	out PORTB, r19
 872:sendpack.S    **** 	out PORTB, r18
 873:sendpack.S    **** 	out PORTB, r19
 874:sendpack.S    **** 	out PORTB, r18
 875:sendpack.S    **** 	out PORTB, r19
 876:sendpack.S    **** 	out PORTB, r18
GAS LISTING /tmp/ccOpXWZF.s 			page 25


 877               	
 878               		 // 1a
 879:sendpack.S    **** 	out PORTB, r19
 880:sendpack.S    **** 	out PORTB, r18
 881:sendpack.S    **** 	out PORTB, r18
 882:sendpack.S    **** 	out PORTB, r19
 883:sendpack.S    **** 	out PORTB, r19
 884:sendpack.S    **** 	out PORTB, r18
 885:sendpack.S    **** 	out PORTB, r18
 886:sendpack.S    **** 	out PORTB, r19
 887:sendpack.S    **** 	out PORTB, r18
 888:sendpack.S    **** 	out PORTB, r19
 889:sendpack.S    **** 	out PORTB, r19
 890:sendpack.S    **** 	out PORTB, r18
 891:sendpack.S    **** 	out PORTB, r19
 892:sendpack.S    **** 	out PORTB, r18
 893:sendpack.S    **** 	out PORTB, r19
 894:sendpack.S    **** 	out PORTB, r18
 895               	
 896               		 // c5
 897:sendpack.S    **** 	out PORTB, r18
 898:sendpack.S    **** 	out PORTB, r19
 899:sendpack.S    **** 	out PORTB, r19
 900:sendpack.S    **** 	out PORTB, r18
 901:sendpack.S    **** 	out PORTB, r18
 902:sendpack.S    **** 	out PORTB, r19
 903:sendpack.S    **** 	out PORTB, r19
 904:sendpack.S    **** 	out PORTB, r18
 905:sendpack.S    **** 	out PORTB, r19
 906:sendpack.S    **** 	out PORTB, r18
 907:sendpack.S    **** 	out PORTB, r19
 908:sendpack.S    **** 	out PORTB, r18
 909:sendpack.S    **** 	out PORTB, r18
 910:sendpack.S    **** 	out PORTB, r19
 911:sendpack.S    **** 	out PORTB, r18
 912:sendpack.S    **** 	out PORTB, r19
 913               	
 914               		 // a0
 915:sendpack.S    **** 	out PORTB, r19
 916:sendpack.S    **** 	out PORTB, r18
 917:sendpack.S    **** 	out PORTB, r19
 918:sendpack.S    **** 	out PORTB, r18
 919:sendpack.S    **** 	out PORTB, r19
 920:sendpack.S    **** 	out PORTB, r18
 921:sendpack.S    **** 	out PORTB, r19
 922:sendpack.S    **** 	out PORTB, r18
 923:sendpack.S    **** 	out PORTB, r19
 924:sendpack.S    **** 	out PORTB, r18
 925:sendpack.S    **** 	out PORTB, r18
 926:sendpack.S    **** 	out PORTB, r19
 927:sendpack.S    **** 	out PORTB, r19
 928:sendpack.S    **** 	out PORTB, r18
 929:sendpack.S    **** 	out PORTB, r18
 930:sendpack.S    **** 	out PORTB, r19
 931               	
 932               		 // 41
 933:sendpack.S    **** 	out PORTB, r18
GAS LISTING /tmp/ccOpXWZF.s 			page 26


 934:sendpack.S    **** 	out PORTB, r19
 935:sendpack.S    **** 	out PORTB, r19
 936:sendpack.S    **** 	out PORTB, r18
 937:sendpack.S    **** 	out PORTB, r19
 938:sendpack.S    **** 	out PORTB, r18
 939:sendpack.S    **** 	out PORTB, r19
 940:sendpack.S    **** 	out PORTB, r18
 941:sendpack.S    **** 	out PORTB, r19
 942:sendpack.S    **** 	out PORTB, r18
 943:sendpack.S    **** 	out PORTB, r19
 944:sendpack.S    **** 	out PORTB, r18
 945:sendpack.S    **** 	out PORTB, r18
 946:sendpack.S    **** 	out PORTB, r19
 947:sendpack.S    **** 	out PORTB, r19
 948:sendpack.S    **** 	out PORTB, r18
 949               	
 950               		 // 0a
 951:sendpack.S    **** 	out PORTB, r19
 952:sendpack.S    **** 	out PORTB, r18
 953:sendpack.S    **** 	out PORTB, r18
 954:sendpack.S    **** 	out PORTB, r19
 955:sendpack.S    **** 	out PORTB, r19
 956:sendpack.S    **** 	out PORTB, r18
 957:sendpack.S    **** 	out PORTB, r18
 958:sendpack.S    **** 	out PORTB, r19
 959:sendpack.S    **** 	out PORTB, r19
 960:sendpack.S    **** 	out PORTB, r18
 961:sendpack.S    **** 	out PORTB, r19
 962:sendpack.S    **** 	out PORTB, r18
 963:sendpack.S    **** 	out PORTB, r19
 964:sendpack.S    **** 	out PORTB, r18
 965:sendpack.S    **** 	out PORTB, r19
 966:sendpack.S    **** 	out PORTB, r18
 967               	
 968               		 // 00
 969:sendpack.S    **** 	out PORTB, r19
 970:sendpack.S    **** 	out PORTB, r18
 971:sendpack.S    **** 	out PORTB, r19
 972:sendpack.S    **** 	out PORTB, r18
 973:sendpack.S    **** 	out PORTB, r19
 974:sendpack.S    **** 	out PORTB, r18
 975:sendpack.S    **** 	out PORTB, r19
 976:sendpack.S    **** 	out PORTB, r18
 977:sendpack.S    **** 	out PORTB, r19
 978:sendpack.S    **** 	out PORTB, r18
 979:sendpack.S    **** 	out PORTB, r19
 980:sendpack.S    **** 	out PORTB, r18
 981:sendpack.S    **** 	out PORTB, r19
 982:sendpack.S    **** 	out PORTB, r18
 983:sendpack.S    **** 	out PORTB, r19
 984:sendpack.S    **** 	out PORTB, r18
 985               	
 986               		 // 00
 987:sendpack.S    **** 	out PORTB, r19
 988:sendpack.S    **** 	out PORTB, r18
 989:sendpack.S    **** 	out PORTB, r19
 990:sendpack.S    **** 	out PORTB, r18
GAS LISTING /tmp/ccOpXWZF.s 			page 27


 991:sendpack.S    **** 	out PORTB, r19
 992:sendpack.S    **** 	out PORTB, r18
 993:sendpack.S    **** 	out PORTB, r19
 994:sendpack.S    **** 	out PORTB, r18
 995:sendpack.S    **** 	out PORTB, r19
 996:sendpack.S    **** 	out PORTB, r18
 997:sendpack.S    **** 	out PORTB, r19
 998:sendpack.S    **** 	out PORTB, r18
 999:sendpack.S    **** 	out PORTB, r19
1000:sendpack.S    **** 	out PORTB, r18
1001:sendpack.S    **** 	out PORTB, r19
1002:sendpack.S    **** 	out PORTB, r18
 1003               	
 1004               		 // 00
1005:sendpack.S    **** 	out PORTB, r19
1006:sendpack.S    **** 	out PORTB, r18
1007:sendpack.S    **** 	out PORTB, r19
1008:sendpack.S    **** 	out PORTB, r18
1009:sendpack.S    **** 	out PORTB, r19
1010:sendpack.S    **** 	out PORTB, r18
1011:sendpack.S    **** 	out PORTB, r19
1012:sendpack.S    **** 	out PORTB, r18
1013:sendpack.S    **** 	out PORTB, r19
1014:sendpack.S    **** 	out PORTB, r18
1015:sendpack.S    **** 	out PORTB, r19
1016:sendpack.S    **** 	out PORTB, r18
1017:sendpack.S    **** 	out PORTB, r19
1018:sendpack.S    **** 	out PORTB, r18
1019:sendpack.S    **** 	out PORTB, r19
1020:sendpack.S    **** 	out PORTB, r18
 1021               	
 1022               		 // 00
1023:sendpack.S    **** 	out PORTB, r19
1024:sendpack.S    **** 	out PORTB, r18
1025:sendpack.S    **** 	out PORTB, r19
1026:sendpack.S    **** 	out PORTB, r18
1027:sendpack.S    **** 	out PORTB, r19
1028:sendpack.S    **** 	out PORTB, r18
1029:sendpack.S    **** 	out PORTB, r19
1030:sendpack.S    **** 	out PORTB, r18
1031:sendpack.S    **** 	out PORTB, r19
1032:sendpack.S    **** 	out PORTB, r18
1033:sendpack.S    **** 	out PORTB, r19
1034:sendpack.S    **** 	out PORTB, r18
1035:sendpack.S    **** 	out PORTB, r19
1036:sendpack.S    **** 	out PORTB, r18
1037:sendpack.S    **** 	out PORTB, r19
1038:sendpack.S    **** 	out PORTB, r18
 1039               	
 1040               		 // 00
1041:sendpack.S    **** 	out PORTB, r19
1042:sendpack.S    **** 	out PORTB, r18
1043:sendpack.S    **** 	out PORTB, r19
1044:sendpack.S    **** 	out PORTB, r18
1045:sendpack.S    **** 	out PORTB, r19
1046:sendpack.S    **** 	out PORTB, r18
1047:sendpack.S    **** 	out PORTB, r19
GAS LISTING /tmp/ccOpXWZF.s 			page 28


1048:sendpack.S    **** 	out PORTB, r18
1049:sendpack.S    **** 	out PORTB, r19
1050:sendpack.S    **** 	out PORTB, r18
1051:sendpack.S    **** 	out PORTB, r19
1052:sendpack.S    **** 	out PORTB, r18
1053:sendpack.S    **** 	out PORTB, r19
1054:sendpack.S    **** 	out PORTB, r18
1055:sendpack.S    **** 	out PORTB, r19
1056:sendpack.S    **** 	out PORTB, r18
 1057               	
 1058               		 // 00
1059:sendpack.S    **** 	out PORTB, r19
1060:sendpack.S    **** 	out PORTB, r18
1061:sendpack.S    **** 	out PORTB, r19
1062:sendpack.S    **** 	out PORTB, r18
1063:sendpack.S    **** 	out PORTB, r19
1064:sendpack.S    **** 	out PORTB, r18
1065:sendpack.S    **** 	out PORTB, r19
1066:sendpack.S    **** 	out PORTB, r18
1067:sendpack.S    **** 	out PORTB, r19
1068:sendpack.S    **** 	out PORTB, r18
1069:sendpack.S    **** 	out PORTB, r19
1070:sendpack.S    **** 	out PORTB, r18
1071:sendpack.S    **** 	out PORTB, r19
1072:sendpack.S    **** 	out PORTB, r18
1073:sendpack.S    **** 	out PORTB, r19
1074:sendpack.S    **** 	out PORTB, r18
 1075               	
 1076               		 // 00
1077:sendpack.S    **** 	out PORTB, r19
1078:sendpack.S    **** 	out PORTB, r18
1079:sendpack.S    **** 	out PORTB, r19
1080:sendpack.S    **** 	out PORTB, r18
1081:sendpack.S    **** 	out PORTB, r19
1082:sendpack.S    **** 	out PORTB, r18
1083:sendpack.S    **** 	out PORTB, r19
1084:sendpack.S    **** 	out PORTB, r18
1085:sendpack.S    **** 	out PORTB, r19
1086:sendpack.S    **** 	out PORTB, r18
1087:sendpack.S    **** 	out PORTB, r19
1088:sendpack.S    **** 	out PORTB, r18
1089:sendpack.S    **** 	out PORTB, r19
1090:sendpack.S    **** 	out PORTB, r18
1091:sendpack.S    **** 	out PORTB, r19
1092:sendpack.S    **** 	out PORTB, r18
 1093               	
 1094               		 // 00
1095:sendpack.S    **** 	out PORTB, r19
1096:sendpack.S    **** 	out PORTB, r18
1097:sendpack.S    **** 	out PORTB, r19
1098:sendpack.S    **** 	out PORTB, r18
1099:sendpack.S    **** 	out PORTB, r19
1100:sendpack.S    **** 	out PORTB, r18
1101:sendpack.S    **** 	out PORTB, r19
1102:sendpack.S    **** 	out PORTB, r18
1103:sendpack.S    **** 	out PORTB, r19
1104:sendpack.S    **** 	out PORTB, r18
GAS LISTING /tmp/ccOpXWZF.s 			page 29


1105:sendpack.S    **** 	out PORTB, r19
1106:sendpack.S    **** 	out PORTB, r18
1107:sendpack.S    **** 	out PORTB, r19
1108:sendpack.S    **** 	out PORTB, r18
1109:sendpack.S    **** 	out PORTB, r19
1110:sendpack.S    **** 	out PORTB, r18
 1111               	
 1112               		 // 00
1113:sendpack.S    **** 	out PORTB, r19
1114:sendpack.S    **** 	out PORTB, r18
1115:sendpack.S    **** 	out PORTB, r19
1116:sendpack.S    **** 	out PORTB, r18
1117:sendpack.S    **** 	out PORTB, r19
1118:sendpack.S    **** 	out PORTB, r18
1119:sendpack.S    **** 	out PORTB, r19
1120:sendpack.S    **** 	out PORTB, r18
1121:sendpack.S    **** 	out PORTB, r19
1122:sendpack.S    **** 	out PORTB, r18
1123:sendpack.S    **** 	out PORTB, r19
1124:sendpack.S    **** 	out PORTB, r18
1125:sendpack.S    **** 	out PORTB, r19
1126:sendpack.S    **** 	out PORTB, r18
1127:sendpack.S    **** 	out PORTB, r19
1128:sendpack.S    **** 	out PORTB, r18
 1129               	
 1130               		 // 00
1131:sendpack.S    **** 	out PORTB, r19
1132:sendpack.S    **** 	out PORTB, r18
1133:sendpack.S    **** 	out PORTB, r19
1134:sendpack.S    **** 	out PORTB, r18
1135:sendpack.S    **** 	out PORTB, r19
1136:sendpack.S    **** 	out PORTB, r18
1137:sendpack.S    **** 	out PORTB, r19
1138:sendpack.S    **** 	out PORTB, r18
1139:sendpack.S    **** 	out PORTB, r19
1140:sendpack.S    **** 	out PORTB, r18
1141:sendpack.S    **** 	out PORTB, r19
1142:sendpack.S    **** 	out PORTB, r18
1143:sendpack.S    **** 	out PORTB, r19
1144:sendpack.S    **** 	out PORTB, r18
1145:sendpack.S    **** 	out PORTB, r19
1146:sendpack.S    **** 	out PORTB, r18
 1147               	
 1148               		 // 00
1149:sendpack.S    **** 	out PORTB, r19
1150:sendpack.S    **** 	out PORTB, r18
1151:sendpack.S    **** 	out PORTB, r19
1152:sendpack.S    **** 	out PORTB, r18
1153:sendpack.S    **** 	out PORTB, r19
1154:sendpack.S    **** 	out PORTB, r18
1155:sendpack.S    **** 	out PORTB, r19
1156:sendpack.S    **** 	out PORTB, r18
1157:sendpack.S    **** 	out PORTB, r19
1158:sendpack.S    **** 	out PORTB, r18
1159:sendpack.S    **** 	out PORTB, r19
1160:sendpack.S    **** 	out PORTB, r18
1161:sendpack.S    **** 	out PORTB, r19
GAS LISTING /tmp/ccOpXWZF.s 			page 30


1162:sendpack.S    **** 	out PORTB, r18
1163:sendpack.S    **** 	out PORTB, r19
1164:sendpack.S    **** 	out PORTB, r18
 1165               	
 1166               		 // 00
1167:sendpack.S    **** 	out PORTB, r19
1168:sendpack.S    **** 	out PORTB, r18
1169:sendpack.S    **** 	out PORTB, r19
1170:sendpack.S    **** 	out PORTB, r18
1171:sendpack.S    **** 	out PORTB, r19
1172:sendpack.S    **** 	out PORTB, r18
1173:sendpack.S    **** 	out PORTB, r19
1174:sendpack.S    **** 	out PORTB, r18
1175:sendpack.S    **** 	out PORTB, r19
1176:sendpack.S    **** 	out PORTB, r18
1177:sendpack.S    **** 	out PORTB, r19
1178:sendpack.S    **** 	out PORTB, r18
1179:sendpack.S    **** 	out PORTB, r19
1180:sendpack.S    **** 	out PORTB, r18
1181:sendpack.S    **** 	out PORTB, r19
1182:sendpack.S    **** 	out PORTB, r18
 1183               	
 1184               		 // 00
1185:sendpack.S    **** 	out PORTB, r19
1186:sendpack.S    **** 	out PORTB, r18
1187:sendpack.S    **** 	out PORTB, r19
1188:sendpack.S    **** 	out PORTB, r18
1189:sendpack.S    **** 	out PORTB, r19
1190:sendpack.S    **** 	out PORTB, r18
1191:sendpack.S    **** 	out PORTB, r19
1192:sendpack.S    **** 	out PORTB, r18
1193:sendpack.S    **** 	out PORTB, r19
1194:sendpack.S    **** 	out PORTB, r18
1195:sendpack.S    **** 	out PORTB, r19
1196:sendpack.S    **** 	out PORTB, r18
1197:sendpack.S    **** 	out PORTB, r19
1198:sendpack.S    **** 	out PORTB, r18
1199:sendpack.S    **** 	out PORTB, r19
1200:sendpack.S    **** 	out PORTB, r18
 1201               	
 1202               		 // 00
1203:sendpack.S    **** 	out PORTB, r19
1204:sendpack.S    **** 	out PORTB, r18
1205:sendpack.S    **** 	out PORTB, r19
1206:sendpack.S    **** 	out PORTB, r18
1207:sendpack.S    **** 	out PORTB, r19
1208:sendpack.S    **** 	out PORTB, r18
1209:sendpack.S    **** 	out PORTB, r19
1210:sendpack.S    **** 	out PORTB, r18
1211:sendpack.S    **** 	out PORTB, r19
1212:sendpack.S    **** 	out PORTB, r18
1213:sendpack.S    **** 	out PORTB, r19
1214:sendpack.S    **** 	out PORTB, r18
1215:sendpack.S    **** 	out PORTB, r19
1216:sendpack.S    **** 	out PORTB, r18
1217:sendpack.S    **** 	out PORTB, r19
1218:sendpack.S    **** 	out PORTB, r18
GAS LISTING /tmp/ccOpXWZF.s 			page 31


 1219               	
 1220               		 // 00
1221:sendpack.S    **** 	out PORTB, r19
1222:sendpack.S    **** 	out PORTB, r18
1223:sendpack.S    **** 	out PORTB, r19
1224:sendpack.S    **** 	out PORTB, r18
1225:sendpack.S    **** 	out PORTB, r19
1226:sendpack.S    **** 	out PORTB, r18
1227:sendpack.S    **** 	out PORTB, r19
1228:sendpack.S    **** 	out PORTB, r18
1229:sendpack.S    **** 	out PORTB, r19
1230:sendpack.S    **** 	out PORTB, r18
1231:sendpack.S    **** 	out PORTB, r19
1232:sendpack.S    **** 	out PORTB, r18
1233:sendpack.S    **** 	out PORTB, r19
1234:sendpack.S    **** 	out PORTB, r18
1235:sendpack.S    **** 	out PORTB, r19
1236:sendpack.S    **** 	out PORTB, r18
 1237               	
 1238               		 // 00
1239:sendpack.S    **** 	out PORTB, r19
1240:sendpack.S    **** 	out PORTB, r18
1241:sendpack.S    **** 	out PORTB, r19
1242:sendpack.S    **** 	out PORTB, r18
1243:sendpack.S    **** 	out PORTB, r19
1244:sendpack.S    **** 	out PORTB, r18
1245:sendpack.S    **** 	out PORTB, r19
1246:sendpack.S    **** 	out PORTB, r18
1247:sendpack.S    **** 	out PORTB, r19
1248:sendpack.S    **** 	out PORTB, r18
1249:sendpack.S    **** 	out PORTB, r19
1250:sendpack.S    **** 	out PORTB, r18
1251:sendpack.S    **** 	out PORTB, r19
1252:sendpack.S    **** 	out PORTB, r18
1253:sendpack.S    **** 	out PORTB, r19
1254:sendpack.S    **** 	out PORTB, r18
 1255               	
 1256               		 // de
1257:sendpack.S    **** 	out PORTB, r19
1258:sendpack.S    **** 	out PORTB, r18
1259:sendpack.S    **** 	out PORTB, r18
1260:sendpack.S    **** 	out PORTB, r19
1261:sendpack.S    **** 	out PORTB, r18
1262:sendpack.S    **** 	out PORTB, r19
1263:sendpack.S    **** 	out PORTB, r18
1264:sendpack.S    **** 	out PORTB, r19
1265:sendpack.S    **** 	out PORTB, r18
1266:sendpack.S    **** 	out PORTB, r19
1267:sendpack.S    **** 	out PORTB, r19
1268:sendpack.S    **** 	out PORTB, r18
1269:sendpack.S    **** 	out PORTB, r18
1270:sendpack.S    **** 	out PORTB, r19
1271:sendpack.S    **** 	out PORTB, r18
1272:sendpack.S    **** 	out PORTB, r19
 1273               	
 1274               		 // 73
1275:sendpack.S    **** 	out PORTB, r18
GAS LISTING /tmp/ccOpXWZF.s 			page 32


1276:sendpack.S    **** 	out PORTB, r19
1277:sendpack.S    **** 	out PORTB, r18
1278:sendpack.S    **** 	out PORTB, r19
1279:sendpack.S    **** 	out PORTB, r19
1280:sendpack.S    **** 	out PORTB, r18
1281:sendpack.S    **** 	out PORTB, r19
1282:sendpack.S    **** 	out PORTB, r18
1283:sendpack.S    **** 	out PORTB, r18
1284:sendpack.S    **** 	out PORTB, r19
1285:sendpack.S    **** 	out PORTB, r18
1286:sendpack.S    **** 	out PORTB, r19
1287:sendpack.S    **** 	out PORTB, r18
1288:sendpack.S    **** 	out PORTB, r19
1289:sendpack.S    **** 	out PORTB, r19
1290:sendpack.S    **** 	out PORTB, r18
 1291               	
 1292               		 // 54
1293:sendpack.S    **** 	out PORTB, r19
1294:sendpack.S    **** 	out PORTB, r18
1295:sendpack.S    **** 	out PORTB, r19
1296:sendpack.S    **** 	out PORTB, r18
1297:sendpack.S    **** 	out PORTB, r18
1298:sendpack.S    **** 	out PORTB, r19
1299:sendpack.S    **** 	out PORTB, r19
1300:sendpack.S    **** 	out PORTB, r18
1301:sendpack.S    **** 	out PORTB, r18
1302:sendpack.S    **** 	out PORTB, r19
1303:sendpack.S    **** 	out PORTB, r19
1304:sendpack.S    **** 	out PORTB, r18
1305:sendpack.S    **** 	out PORTB, r18
1306:sendpack.S    **** 	out PORTB, r19
1307:sendpack.S    **** 	out PORTB, r19
1308:sendpack.S    **** 	out PORTB, r18
 1309               	
 1310               		 // a7
1311:sendpack.S    **** 	out PORTB, r18
1312:sendpack.S    **** 	out PORTB, r19
1313:sendpack.S    **** 	out PORTB, r18
1314:sendpack.S    **** 	out PORTB, r19
1315:sendpack.S    **** 	out PORTB, r18
1316:sendpack.S    **** 	out PORTB, r19
1317:sendpack.S    **** 	out PORTB, r19
1318:sendpack.S    **** 	out PORTB, r18
1319:sendpack.S    **** 	out PORTB, r19
1320:sendpack.S    **** 	out PORTB, r18
1321:sendpack.S    **** 	out PORTB, r18
1322:sendpack.S    **** 	out PORTB, r19
1323:sendpack.S    **** 	out PORTB, r19
1324:sendpack.S    **** 	out PORTB, r18
1325:sendpack.S    **** 	out PORTB, r18
1326:sendpack.S    **** 	out PORTB, r19
 1327               	
1328:sendpack.S    **** 	out PORTB, r20
1329:sendpack.S    **** 	ret
 1330               	
 1331               	.global SendBPacket
 1332               	SendBPacket:
GAS LISTING /tmp/ccOpXWZF.s 			page 33


1333:sendpack.S    **** 	eor r18, r18
1334:sendpack.S    **** 	eor r19, r19
1335:sendpack.S    **** 	eor r20, r20
1336:sendpack.S    **** 	ori r18, 0b00010101
1337:sendpack.S    **** 	ori r19, 0b00001101
1338:sendpack.S    **** 	ori r20, 0b00000101
1339:sendpack.S    **** 	out PORTB, r18
 1340               		 // 55
1341:sendpack.S    **** 	out PORTB, r18
1342:sendpack.S    **** 	out PORTB, r19
1343:sendpack.S    **** 	out PORTB, r19
1344:sendpack.S    **** 	out PORTB, r18
1345:sendpack.S    **** 	out PORTB, r18
1346:sendpack.S    **** 	out PORTB, r19
1347:sendpack.S    **** 	out PORTB, r19
1348:sendpack.S    **** 	out PORTB, r18
1349:sendpack.S    **** 	out PORTB, r18
1350:sendpack.S    **** 	out PORTB, r19
1351:sendpack.S    **** 	out PORTB, r19
1352:sendpack.S    **** 	out PORTB, r18
1353:sendpack.S    **** 	out PORTB, r18
1354:sendpack.S    **** 	out PORTB, r19
1355:sendpack.S    **** 	out PORTB, r19
1356:sendpack.S    **** 	out PORTB, r18
 1357               	
 1358               		 // 55
1359:sendpack.S    **** 	out PORTB, r18
1360:sendpack.S    **** 	out PORTB, r19
1361:sendpack.S    **** 	out PORTB, r19
1362:sendpack.S    **** 	out PORTB, r18
1363:sendpack.S    **** 	out PORTB, r18
1364:sendpack.S    **** 	out PORTB, r19
1365:sendpack.S    **** 	out PORTB, r19
1366:sendpack.S    **** 	out PORTB, r18
1367:sendpack.S    **** 	out PORTB, r18
1368:sendpack.S    **** 	out PORTB, r19
1369:sendpack.S    **** 	out PORTB, r19
1370:sendpack.S    **** 	out PORTB, r18
1371:sendpack.S    **** 	out PORTB, r18
1372:sendpack.S    **** 	out PORTB, r19
1373:sendpack.S    **** 	out PORTB, r19
1374:sendpack.S    **** 	out PORTB, r18
 1375               	
 1376               		 // 55
1377:sendpack.S    **** 	out PORTB, r18
1378:sendpack.S    **** 	out PORTB, r19
1379:sendpack.S    **** 	out PORTB, r19
1380:sendpack.S    **** 	out PORTB, r18
1381:sendpack.S    **** 	out PORTB, r18
1382:sendpack.S    **** 	out PORTB, r19
1383:sendpack.S    **** 	out PORTB, r19
1384:sendpack.S    **** 	out PORTB, r18
1385:sendpack.S    **** 	out PORTB, r18
1386:sendpack.S    **** 	out PORTB, r19
1387:sendpack.S    **** 	out PORTB, r19
1388:sendpack.S    **** 	out PORTB, r18
1389:sendpack.S    **** 	out PORTB, r18
GAS LISTING /tmp/ccOpXWZF.s 			page 34


1390:sendpack.S    **** 	out PORTB, r19
1391:sendpack.S    **** 	out PORTB, r19
1392:sendpack.S    **** 	out PORTB, r18
 1393               	
 1394               		 // 55
1395:sendpack.S    **** 	out PORTB, r18
1396:sendpack.S    **** 	out PORTB, r19
1397:sendpack.S    **** 	out PORTB, r19
1398:sendpack.S    **** 	out PORTB, r18
1399:sendpack.S    **** 	out PORTB, r18
1400:sendpack.S    **** 	out PORTB, r19
1401:sendpack.S    **** 	out PORTB, r19
1402:sendpack.S    **** 	out PORTB, r18
1403:sendpack.S    **** 	out PORTB, r18
1404:sendpack.S    **** 	out PORTB, r19
1405:sendpack.S    **** 	out PORTB, r19
1406:sendpack.S    **** 	out PORTB, r18
1407:sendpack.S    **** 	out PORTB, r18
1408:sendpack.S    **** 	out PORTB, r19
1409:sendpack.S    **** 	out PORTB, r19
1410:sendpack.S    **** 	out PORTB, r18
 1411               	
 1412               		 // 55
1413:sendpack.S    **** 	out PORTB, r18
1414:sendpack.S    **** 	out PORTB, r19
1415:sendpack.S    **** 	out PORTB, r19
1416:sendpack.S    **** 	out PORTB, r18
1417:sendpack.S    **** 	out PORTB, r18
1418:sendpack.S    **** 	out PORTB, r19
1419:sendpack.S    **** 	out PORTB, r19
1420:sendpack.S    **** 	out PORTB, r18
1421:sendpack.S    **** 	out PORTB, r18
1422:sendpack.S    **** 	out PORTB, r19
1423:sendpack.S    **** 	out PORTB, r19
1424:sendpack.S    **** 	out PORTB, r18
1425:sendpack.S    **** 	out PORTB, r18
1426:sendpack.S    **** 	out PORTB, r19
1427:sendpack.S    **** 	out PORTB, r19
1428:sendpack.S    **** 	out PORTB, r18
 1429               	
 1430               		 // 55
1431:sendpack.S    **** 	out PORTB, r18
1432:sendpack.S    **** 	out PORTB, r19
1433:sendpack.S    **** 	out PORTB, r19
1434:sendpack.S    **** 	out PORTB, r18
1435:sendpack.S    **** 	out PORTB, r18
1436:sendpack.S    **** 	out PORTB, r19
1437:sendpack.S    **** 	out PORTB, r19
1438:sendpack.S    **** 	out PORTB, r18
1439:sendpack.S    **** 	out PORTB, r18
1440:sendpack.S    **** 	out PORTB, r19
1441:sendpack.S    **** 	out PORTB, r19
1442:sendpack.S    **** 	out PORTB, r18
1443:sendpack.S    **** 	out PORTB, r18
1444:sendpack.S    **** 	out PORTB, r19
1445:sendpack.S    **** 	out PORTB, r19
1446:sendpack.S    **** 	out PORTB, r18
GAS LISTING /tmp/ccOpXWZF.s 			page 35


 1447               	
 1448               		 // 55
1449:sendpack.S    **** 	out PORTB, r18
1450:sendpack.S    **** 	out PORTB, r19
1451:sendpack.S    **** 	out PORTB, r19
1452:sendpack.S    **** 	out PORTB, r18
1453:sendpack.S    **** 	out PORTB, r18
1454:sendpack.S    **** 	out PORTB, r19
1455:sendpack.S    **** 	out PORTB, r19
1456:sendpack.S    **** 	out PORTB, r18
1457:sendpack.S    **** 	out PORTB, r18
1458:sendpack.S    **** 	out PORTB, r19
1459:sendpack.S    **** 	out PORTB, r19
1460:sendpack.S    **** 	out PORTB, r18
1461:sendpack.S    **** 	out PORTB, r18
1462:sendpack.S    **** 	out PORTB, r19
1463:sendpack.S    **** 	out PORTB, r19
1464:sendpack.S    **** 	out PORTB, r18
 1465               	
 1466               		 // d5
1467:sendpack.S    **** 	out PORTB, r18
1468:sendpack.S    **** 	out PORTB, r19
1469:sendpack.S    **** 	out PORTB, r19
1470:sendpack.S    **** 	out PORTB, r18
1471:sendpack.S    **** 	out PORTB, r18
1472:sendpack.S    **** 	out PORTB, r19
1473:sendpack.S    **** 	out PORTB, r19
1474:sendpack.S    **** 	out PORTB, r18
1475:sendpack.S    **** 	out PORTB, r18
1476:sendpack.S    **** 	out PORTB, r19
1477:sendpack.S    **** 	out PORTB, r19
1478:sendpack.S    **** 	out PORTB, r18
1479:sendpack.S    **** 	out PORTB, r18
1480:sendpack.S    **** 	out PORTB, r19
1481:sendpack.S    **** 	out PORTB, r18
1482:sendpack.S    **** 	out PORTB, r19
 1483               	
1484:sendpack.S    **** //;MAC TO
1485:sendpack.S    **** //;MAC FROM (Change this)
1486:sendpack.S    **** //; IP; 20-byte header
1487:sendpack.S    **** //;Length
1488:sendpack.S    **** //;Identification?
1489:sendpack.S    **** //;Flags & Fragment
1490:sendpack.S    **** //;TTL
1491:sendpack.S    **** //;UDP
1492:sendpack.S    **** //;CHECKSUM
1493:sendpack.S    **** //; Address From
1494:sendpack.S    **** //;Source port
1495:sendpack.S    **** //;Dest port
1496:sendpack.S    **** //;Length + Checksum
1497:sendpack.S    **** //;Payload
1498:sendpack.S    **** 	 // ff
1499:sendpack.S    **** 	out PORTB, r18
1500:sendpack.S    **** 	out PORTB, r19
1501:sendpack.S    **** 	out PORTB, r18
1502:sendpack.S    **** 	out PORTB, r19
1503:sendpack.S    **** 	out PORTB, r18
GAS LISTING /tmp/ccOpXWZF.s 			page 36


1504:sendpack.S    **** 	out PORTB, r19
1505:sendpack.S    **** 	out PORTB, r18
1506:sendpack.S    **** 	out PORTB, r19
1507:sendpack.S    **** 	out PORTB, r18
1508:sendpack.S    **** 	out PORTB, r19
1509:sendpack.S    **** 	out PORTB, r18
1510:sendpack.S    **** 	out PORTB, r19
1511:sendpack.S    **** 	out PORTB, r18
1512:sendpack.S    **** 	out PORTB, r19
1513:sendpack.S    **** 	out PORTB, r18
1514:sendpack.S    **** 	out PORTB, r19
 1515               	
 1516               		 // ff
1517:sendpack.S    **** 	out PORTB, r18
1518:sendpack.S    **** 	out PORTB, r19
1519:sendpack.S    **** 	out PORTB, r18
1520:sendpack.S    **** 	out PORTB, r19
1521:sendpack.S    **** 	out PORTB, r18
1522:sendpack.S    **** 	out PORTB, r19
1523:sendpack.S    **** 	out PORTB, r18
1524:sendpack.S    **** 	out PORTB, r19
1525:sendpack.S    **** 	out PORTB, r18
1526:sendpack.S    **** 	out PORTB, r19
1527:sendpack.S    **** 	out PORTB, r18
1528:sendpack.S    **** 	out PORTB, r19
1529:sendpack.S    **** 	out PORTB, r18
1530:sendpack.S    **** 	out PORTB, r19
1531:sendpack.S    **** 	out PORTB, r18
1532:sendpack.S    **** 	out PORTB, r19
 1533               	
 1534               		 // ff
1535:sendpack.S    **** 	out PORTB, r18
1536:sendpack.S    **** 	out PORTB, r19
1537:sendpack.S    **** 	out PORTB, r18
1538:sendpack.S    **** 	out PORTB, r19
1539:sendpack.S    **** 	out PORTB, r18
1540:sendpack.S    **** 	out PORTB, r19
1541:sendpack.S    **** 	out PORTB, r18
1542:sendpack.S    **** 	out PORTB, r19
1543:sendpack.S    **** 	out PORTB, r18
1544:sendpack.S    **** 	out PORTB, r19
1545:sendpack.S    **** 	out PORTB, r18
1546:sendpack.S    **** 	out PORTB, r19
1547:sendpack.S    **** 	out PORTB, r18
1548:sendpack.S    **** 	out PORTB, r19
1549:sendpack.S    **** 	out PORTB, r18
1550:sendpack.S    **** 	out PORTB, r19
 1551               	
 1552               		 // ff
1553:sendpack.S    **** 	out PORTB, r18
1554:sendpack.S    **** 	out PORTB, r19
1555:sendpack.S    **** 	out PORTB, r18
1556:sendpack.S    **** 	out PORTB, r19
1557:sendpack.S    **** 	out PORTB, r18
1558:sendpack.S    **** 	out PORTB, r19
1559:sendpack.S    **** 	out PORTB, r18
1560:sendpack.S    **** 	out PORTB, r19
GAS LISTING /tmp/ccOpXWZF.s 			page 37


1561:sendpack.S    **** 	out PORTB, r18
1562:sendpack.S    **** 	out PORTB, r19
1563:sendpack.S    **** 	out PORTB, r18
1564:sendpack.S    **** 	out PORTB, r19
1565:sendpack.S    **** 	out PORTB, r18
1566:sendpack.S    **** 	out PORTB, r19
1567:sendpack.S    **** 	out PORTB, r18
1568:sendpack.S    **** 	out PORTB, r19
 1569               	
 1570               		 // ff
1571:sendpack.S    **** 	out PORTB, r18
1572:sendpack.S    **** 	out PORTB, r19
1573:sendpack.S    **** 	out PORTB, r18
1574:sendpack.S    **** 	out PORTB, r19
1575:sendpack.S    **** 	out PORTB, r18
1576:sendpack.S    **** 	out PORTB, r19
1577:sendpack.S    **** 	out PORTB, r18
1578:sendpack.S    **** 	out PORTB, r19
1579:sendpack.S    **** 	out PORTB, r18
1580:sendpack.S    **** 	out PORTB, r19
1581:sendpack.S    **** 	out PORTB, r18
1582:sendpack.S    **** 	out PORTB, r19
1583:sendpack.S    **** 	out PORTB, r18
1584:sendpack.S    **** 	out PORTB, r19
1585:sendpack.S    **** 	out PORTB, r18
1586:sendpack.S    **** 	out PORTB, r19
 1587               	
 1588               		 // ff
1589:sendpack.S    **** 	out PORTB, r18
1590:sendpack.S    **** 	out PORTB, r19
1591:sendpack.S    **** 	out PORTB, r18
1592:sendpack.S    **** 	out PORTB, r19
1593:sendpack.S    **** 	out PORTB, r18
1594:sendpack.S    **** 	out PORTB, r19
1595:sendpack.S    **** 	out PORTB, r18
1596:sendpack.S    **** 	out PORTB, r19
1597:sendpack.S    **** 	out PORTB, r18
1598:sendpack.S    **** 	out PORTB, r19
1599:sendpack.S    **** 	out PORTB, r18
1600:sendpack.S    **** 	out PORTB, r19
1601:sendpack.S    **** 	out PORTB, r18
1602:sendpack.S    **** 	out PORTB, r19
1603:sendpack.S    **** 	out PORTB, r18
1604:sendpack.S    **** 	out PORTB, r19
 1605               	
 1606               		 // 00
1607:sendpack.S    **** 	out PORTB, r19
1608:sendpack.S    **** 	out PORTB, r18
1609:sendpack.S    **** 	out PORTB, r19
1610:sendpack.S    **** 	out PORTB, r18
1611:sendpack.S    **** 	out PORTB, r19
1612:sendpack.S    **** 	out PORTB, r18
1613:sendpack.S    **** 	out PORTB, r19
1614:sendpack.S    **** 	out PORTB, r18
1615:sendpack.S    **** 	out PORTB, r19
1616:sendpack.S    **** 	out PORTB, r18
1617:sendpack.S    **** 	out PORTB, r19
GAS LISTING /tmp/ccOpXWZF.s 			page 38


1618:sendpack.S    **** 	out PORTB, r18
1619:sendpack.S    **** 	out PORTB, r19
1620:sendpack.S    **** 	out PORTB, r18
1621:sendpack.S    **** 	out PORTB, r19
1622:sendpack.S    **** 	out PORTB, r18
 1623               	
 1624               		 // 55
1625:sendpack.S    **** 	out PORTB, r18
1626:sendpack.S    **** 	out PORTB, r19
1627:sendpack.S    **** 	out PORTB, r19
1628:sendpack.S    **** 	out PORTB, r18
1629:sendpack.S    **** 	out PORTB, r18
1630:sendpack.S    **** 	out PORTB, r19
1631:sendpack.S    **** 	out PORTB, r19
1632:sendpack.S    **** 	out PORTB, r18
1633:sendpack.S    **** 	out PORTB, r18
1634:sendpack.S    **** 	out PORTB, r19
1635:sendpack.S    **** 	out PORTB, r19
1636:sendpack.S    **** 	out PORTB, r18
1637:sendpack.S    **** 	out PORTB, r18
1638:sendpack.S    **** 	out PORTB, r19
1639:sendpack.S    **** 	out PORTB, r19
1640:sendpack.S    **** 	out PORTB, r18
 1641               	
 1642               		 // 00
1643:sendpack.S    **** 	out PORTB, r19
1644:sendpack.S    **** 	out PORTB, r18
1645:sendpack.S    **** 	out PORTB, r19
1646:sendpack.S    **** 	out PORTB, r18
1647:sendpack.S    **** 	out PORTB, r19
1648:sendpack.S    **** 	out PORTB, r18
1649:sendpack.S    **** 	out PORTB, r19
1650:sendpack.S    **** 	out PORTB, r18
1651:sendpack.S    **** 	out PORTB, r19
1652:sendpack.S    **** 	out PORTB, r18
1653:sendpack.S    **** 	out PORTB, r19
1654:sendpack.S    **** 	out PORTB, r18
1655:sendpack.S    **** 	out PORTB, r19
1656:sendpack.S    **** 	out PORTB, r18
1657:sendpack.S    **** 	out PORTB, r19
1658:sendpack.S    **** 	out PORTB, r18
 1659               	
 1660               		 // 55
1661:sendpack.S    **** 	out PORTB, r18
1662:sendpack.S    **** 	out PORTB, r19
1663:sendpack.S    **** 	out PORTB, r19
1664:sendpack.S    **** 	out PORTB, r18
1665:sendpack.S    **** 	out PORTB, r18
1666:sendpack.S    **** 	out PORTB, r19
1667:sendpack.S    **** 	out PORTB, r19
1668:sendpack.S    **** 	out PORTB, r18
1669:sendpack.S    **** 	out PORTB, r18
1670:sendpack.S    **** 	out PORTB, r19
1671:sendpack.S    **** 	out PORTB, r19
1672:sendpack.S    **** 	out PORTB, r18
1673:sendpack.S    **** 	out PORTB, r18
1674:sendpack.S    **** 	out PORTB, r19
GAS LISTING /tmp/ccOpXWZF.s 			page 39


1675:sendpack.S    **** 	out PORTB, r19
1676:sendpack.S    **** 	out PORTB, r18
 1677               	
 1678               		 // 00
1679:sendpack.S    **** 	out PORTB, r19
1680:sendpack.S    **** 	out PORTB, r18
1681:sendpack.S    **** 	out PORTB, r19
1682:sendpack.S    **** 	out PORTB, r18
1683:sendpack.S    **** 	out PORTB, r19
1684:sendpack.S    **** 	out PORTB, r18
1685:sendpack.S    **** 	out PORTB, r19
1686:sendpack.S    **** 	out PORTB, r18
1687:sendpack.S    **** 	out PORTB, r19
1688:sendpack.S    **** 	out PORTB, r18
1689:sendpack.S    **** 	out PORTB, r19
1690:sendpack.S    **** 	out PORTB, r18
1691:sendpack.S    **** 	out PORTB, r19
1692:sendpack.S    **** 	out PORTB, r18
1693:sendpack.S    **** 	out PORTB, r19
1694:sendpack.S    **** 	out PORTB, r18
 1695               	
 1696               		 // 55
1697:sendpack.S    **** 	out PORTB, r18
1698:sendpack.S    **** 	out PORTB, r19
1699:sendpack.S    **** 	out PORTB, r19
1700:sendpack.S    **** 	out PORTB, r18
1701:sendpack.S    **** 	out PORTB, r18
1702:sendpack.S    **** 	out PORTB, r19
1703:sendpack.S    **** 	out PORTB, r19
1704:sendpack.S    **** 	out PORTB, r18
1705:sendpack.S    **** 	out PORTB, r18
1706:sendpack.S    **** 	out PORTB, r19
1707:sendpack.S    **** 	out PORTB, r19
1708:sendpack.S    **** 	out PORTB, r18
1709:sendpack.S    **** 	out PORTB, r18
1710:sendpack.S    **** 	out PORTB, r19
1711:sendpack.S    **** 	out PORTB, r19
1712:sendpack.S    **** 	out PORTB, r18
 1713               	
 1714               		 // 08
1715:sendpack.S    **** 	out PORTB, r19
1716:sendpack.S    **** 	out PORTB, r18
1717:sendpack.S    **** 	out PORTB, r19
1718:sendpack.S    **** 	out PORTB, r18
1719:sendpack.S    **** 	out PORTB, r19
1720:sendpack.S    **** 	out PORTB, r18
1721:sendpack.S    **** 	out PORTB, r18
1722:sendpack.S    **** 	out PORTB, r19
1723:sendpack.S    **** 	out PORTB, r19
1724:sendpack.S    **** 	out PORTB, r18
1725:sendpack.S    **** 	out PORTB, r19
1726:sendpack.S    **** 	out PORTB, r18
1727:sendpack.S    **** 	out PORTB, r19
1728:sendpack.S    **** 	out PORTB, r18
1729:sendpack.S    **** 	out PORTB, r19
1730:sendpack.S    **** 	out PORTB, r18
 1731               	
GAS LISTING /tmp/ccOpXWZF.s 			page 40


 1732               		 // 00
1733:sendpack.S    **** 	out PORTB, r19
1734:sendpack.S    **** 	out PORTB, r18
1735:sendpack.S    **** 	out PORTB, r19
1736:sendpack.S    **** 	out PORTB, r18
1737:sendpack.S    **** 	out PORTB, r19
1738:sendpack.S    **** 	out PORTB, r18
1739:sendpack.S    **** 	out PORTB, r19
1740:sendpack.S    **** 	out PORTB, r18
1741:sendpack.S    **** 	out PORTB, r19
1742:sendpack.S    **** 	out PORTB, r18
1743:sendpack.S    **** 	out PORTB, r19
1744:sendpack.S    **** 	out PORTB, r18
1745:sendpack.S    **** 	out PORTB, r19
1746:sendpack.S    **** 	out PORTB, r18
1747:sendpack.S    **** 	out PORTB, r19
1748:sendpack.S    **** 	out PORTB, r18
 1749               	
 1750               		 // 45
1751:sendpack.S    **** 	out PORTB, r18
1752:sendpack.S    **** 	out PORTB, r19
1753:sendpack.S    **** 	out PORTB, r19
1754:sendpack.S    **** 	out PORTB, r18
1755:sendpack.S    **** 	out PORTB, r18
1756:sendpack.S    **** 	out PORTB, r19
1757:sendpack.S    **** 	out PORTB, r19
1758:sendpack.S    **** 	out PORTB, r18
1759:sendpack.S    **** 	out PORTB, r19
1760:sendpack.S    **** 	out PORTB, r18
1761:sendpack.S    **** 	out PORTB, r19
1762:sendpack.S    **** 	out PORTB, r18
1763:sendpack.S    **** 	out PORTB, r18
1764:sendpack.S    **** 	out PORTB, r19
1765:sendpack.S    **** 	out PORTB, r19
1766:sendpack.S    **** 	out PORTB, r18
 1767               	
 1768               		 // 00
1769:sendpack.S    **** 	out PORTB, r19
1770:sendpack.S    **** 	out PORTB, r18
1771:sendpack.S    **** 	out PORTB, r19
1772:sendpack.S    **** 	out PORTB, r18
1773:sendpack.S    **** 	out PORTB, r19
1774:sendpack.S    **** 	out PORTB, r18
1775:sendpack.S    **** 	out PORTB, r19
1776:sendpack.S    **** 	out PORTB, r18
1777:sendpack.S    **** 	out PORTB, r19
1778:sendpack.S    **** 	out PORTB, r18
1779:sendpack.S    **** 	out PORTB, r19
1780:sendpack.S    **** 	out PORTB, r18
1781:sendpack.S    **** 	out PORTB, r19
1782:sendpack.S    **** 	out PORTB, r18
1783:sendpack.S    **** 	out PORTB, r19
1784:sendpack.S    **** 	out PORTB, r18
 1785               	
 1786               		 // 00
1787:sendpack.S    **** 	out PORTB, r19
1788:sendpack.S    **** 	out PORTB, r18
GAS LISTING /tmp/ccOpXWZF.s 			page 41


1789:sendpack.S    **** 	out PORTB, r19
1790:sendpack.S    **** 	out PORTB, r18
1791:sendpack.S    **** 	out PORTB, r19
1792:sendpack.S    **** 	out PORTB, r18
1793:sendpack.S    **** 	out PORTB, r19
1794:sendpack.S    **** 	out PORTB, r18
1795:sendpack.S    **** 	out PORTB, r19
1796:sendpack.S    **** 	out PORTB, r18
1797:sendpack.S    **** 	out PORTB, r19
1798:sendpack.S    **** 	out PORTB, r18
1799:sendpack.S    **** 	out PORTB, r19
1800:sendpack.S    **** 	out PORTB, r18
1801:sendpack.S    **** 	out PORTB, r19
1802:sendpack.S    **** 	out PORTB, r18
 1803               	
 1804               		 // 2e
1805:sendpack.S    **** 	out PORTB, r19
1806:sendpack.S    **** 	out PORTB, r18
1807:sendpack.S    **** 	out PORTB, r18
1808:sendpack.S    **** 	out PORTB, r19
1809:sendpack.S    **** 	out PORTB, r18
1810:sendpack.S    **** 	out PORTB, r19
1811:sendpack.S    **** 	out PORTB, r18
1812:sendpack.S    **** 	out PORTB, r19
1813:sendpack.S    **** 	out PORTB, r19
1814:sendpack.S    **** 	out PORTB, r18
1815:sendpack.S    **** 	out PORTB, r18
1816:sendpack.S    **** 	out PORTB, r19
1817:sendpack.S    **** 	out PORTB, r19
1818:sendpack.S    **** 	out PORTB, r18
1819:sendpack.S    **** 	out PORTB, r19
1820:sendpack.S    **** 	out PORTB, r18
 1821               	
 1822               		 // b3
1823:sendpack.S    **** 	out PORTB, r18
1824:sendpack.S    **** 	out PORTB, r19
1825:sendpack.S    **** 	out PORTB, r18
1826:sendpack.S    **** 	out PORTB, r19
1827:sendpack.S    **** 	out PORTB, r19
1828:sendpack.S    **** 	out PORTB, r18
1829:sendpack.S    **** 	out PORTB, r19
1830:sendpack.S    **** 	out PORTB, r18
1831:sendpack.S    **** 	out PORTB, r18
1832:sendpack.S    **** 	out PORTB, r19
1833:sendpack.S    **** 	out PORTB, r18
1834:sendpack.S    **** 	out PORTB, r19
1835:sendpack.S    **** 	out PORTB, r19
1836:sendpack.S    **** 	out PORTB, r18
1837:sendpack.S    **** 	out PORTB, r18
1838:sendpack.S    **** 	out PORTB, r19
 1839               	
 1840               		 // f0
1841:sendpack.S    **** 	out PORTB, r19
1842:sendpack.S    **** 	out PORTB, r18
1843:sendpack.S    **** 	out PORTB, r19
1844:sendpack.S    **** 	out PORTB, r18
1845:sendpack.S    **** 	out PORTB, r19
GAS LISTING /tmp/ccOpXWZF.s 			page 42


1846:sendpack.S    **** 	out PORTB, r18
1847:sendpack.S    **** 	out PORTB, r19
1848:sendpack.S    **** 	out PORTB, r18
1849:sendpack.S    **** 	out PORTB, r18
1850:sendpack.S    **** 	out PORTB, r19
1851:sendpack.S    **** 	out PORTB, r18
1852:sendpack.S    **** 	out PORTB, r19
1853:sendpack.S    **** 	out PORTB, r18
1854:sendpack.S    **** 	out PORTB, r19
1855:sendpack.S    **** 	out PORTB, r18
1856:sendpack.S    **** 	out PORTB, r19
 1857               	
 1858               		 // 00
1859:sendpack.S    **** 	out PORTB, r19
1860:sendpack.S    **** 	out PORTB, r18
1861:sendpack.S    **** 	out PORTB, r19
1862:sendpack.S    **** 	out PORTB, r18
1863:sendpack.S    **** 	out PORTB, r19
1864:sendpack.S    **** 	out PORTB, r18
1865:sendpack.S    **** 	out PORTB, r19
1866:sendpack.S    **** 	out PORTB, r18
1867:sendpack.S    **** 	out PORTB, r19
1868:sendpack.S    **** 	out PORTB, r18
1869:sendpack.S    **** 	out PORTB, r19
1870:sendpack.S    **** 	out PORTB, r18
1871:sendpack.S    **** 	out PORTB, r19
1872:sendpack.S    **** 	out PORTB, r18
1873:sendpack.S    **** 	out PORTB, r19
1874:sendpack.S    **** 	out PORTB, r18
 1875               	
 1876               		 // 00
1877:sendpack.S    **** 	out PORTB, r19
1878:sendpack.S    **** 	out PORTB, r18
1879:sendpack.S    **** 	out PORTB, r19
1880:sendpack.S    **** 	out PORTB, r18
1881:sendpack.S    **** 	out PORTB, r19
1882:sendpack.S    **** 	out PORTB, r18
1883:sendpack.S    **** 	out PORTB, r19
1884:sendpack.S    **** 	out PORTB, r18
1885:sendpack.S    **** 	out PORTB, r19
1886:sendpack.S    **** 	out PORTB, r18
1887:sendpack.S    **** 	out PORTB, r19
1888:sendpack.S    **** 	out PORTB, r18
1889:sendpack.S    **** 	out PORTB, r19
1890:sendpack.S    **** 	out PORTB, r18
1891:sendpack.S    **** 	out PORTB, r19
1892:sendpack.S    **** 	out PORTB, r18
 1893               	
 1894               		 // 80
1895:sendpack.S    **** 	out PORTB, r19
1896:sendpack.S    **** 	out PORTB, r18
1897:sendpack.S    **** 	out PORTB, r19
1898:sendpack.S    **** 	out PORTB, r18
1899:sendpack.S    **** 	out PORTB, r19
1900:sendpack.S    **** 	out PORTB, r18
1901:sendpack.S    **** 	out PORTB, r19
1902:sendpack.S    **** 	out PORTB, r18
GAS LISTING /tmp/ccOpXWZF.s 			page 43


1903:sendpack.S    **** 	out PORTB, r19
1904:sendpack.S    **** 	out PORTB, r18
1905:sendpack.S    **** 	out PORTB, r19
1906:sendpack.S    **** 	out PORTB, r18
1907:sendpack.S    **** 	out PORTB, r19
1908:sendpack.S    **** 	out PORTB, r18
1909:sendpack.S    **** 	out PORTB, r18
1910:sendpack.S    **** 	out PORTB, r19
 1911               	
 1912               		 // 11
1913:sendpack.S    **** 	out PORTB, r18
1914:sendpack.S    **** 	out PORTB, r19
1915:sendpack.S    **** 	out PORTB, r19
1916:sendpack.S    **** 	out PORTB, r18
1917:sendpack.S    **** 	out PORTB, r19
1918:sendpack.S    **** 	out PORTB, r18
1919:sendpack.S    **** 	out PORTB, r19
1920:sendpack.S    **** 	out PORTB, r18
1921:sendpack.S    **** 	out PORTB, r18
1922:sendpack.S    **** 	out PORTB, r19
1923:sendpack.S    **** 	out PORTB, r19
1924:sendpack.S    **** 	out PORTB, r18
1925:sendpack.S    **** 	out PORTB, r19
1926:sendpack.S    **** 	out PORTB, r18
1927:sendpack.S    **** 	out PORTB, r19
1928:sendpack.S    **** 	out PORTB, r18
 1929               	
 1930               		 // c5
1931:sendpack.S    **** 	out PORTB, r18
1932:sendpack.S    **** 	out PORTB, r19
1933:sendpack.S    **** 	out PORTB, r19
1934:sendpack.S    **** 	out PORTB, r18
1935:sendpack.S    **** 	out PORTB, r18
1936:sendpack.S    **** 	out PORTB, r19
1937:sendpack.S    **** 	out PORTB, r19
1938:sendpack.S    **** 	out PORTB, r18
1939:sendpack.S    **** 	out PORTB, r19
1940:sendpack.S    **** 	out PORTB, r18
1941:sendpack.S    **** 	out PORTB, r19
1942:sendpack.S    **** 	out PORTB, r18
1943:sendpack.S    **** 	out PORTB, r18
1944:sendpack.S    **** 	out PORTB, r19
1945:sendpack.S    **** 	out PORTB, r18
1946:sendpack.S    **** 	out PORTB, r19
 1947               	
 1948               		 // bf
1949:sendpack.S    **** 	out PORTB, r18
1950:sendpack.S    **** 	out PORTB, r19
1951:sendpack.S    **** 	out PORTB, r18
1952:sendpack.S    **** 	out PORTB, r19
1953:sendpack.S    **** 	out PORTB, r18
1954:sendpack.S    **** 	out PORTB, r19
1955:sendpack.S    **** 	out PORTB, r18
1956:sendpack.S    **** 	out PORTB, r19
1957:sendpack.S    **** 	out PORTB, r18
1958:sendpack.S    **** 	out PORTB, r19
1959:sendpack.S    **** 	out PORTB, r18
GAS LISTING /tmp/ccOpXWZF.s 			page 44


1960:sendpack.S    **** 	out PORTB, r19
1961:sendpack.S    **** 	out PORTB, r19
1962:sendpack.S    **** 	out PORTB, r18
1963:sendpack.S    **** 	out PORTB, r18
1964:sendpack.S    **** 	out PORTB, r19
 1965               	
 1966               		 // c0
1967:sendpack.S    **** 	out PORTB, r19
1968:sendpack.S    **** 	out PORTB, r18
1969:sendpack.S    **** 	out PORTB, r19
1970:sendpack.S    **** 	out PORTB, r18
1971:sendpack.S    **** 	out PORTB, r19
1972:sendpack.S    **** 	out PORTB, r18
1973:sendpack.S    **** 	out PORTB, r19
1974:sendpack.S    **** 	out PORTB, r18
1975:sendpack.S    **** 	out PORTB, r19
1976:sendpack.S    **** 	out PORTB, r18
1977:sendpack.S    **** 	out PORTB, r19
1978:sendpack.S    **** 	out PORTB, r18
1979:sendpack.S    **** 	out PORTB, r18
1980:sendpack.S    **** 	out PORTB, r19
1981:sendpack.S    **** 	out PORTB, r18
1982:sendpack.S    **** 	out PORTB, r19
 1983               	
 1984               		 // a8
1985:sendpack.S    **** 	out PORTB, r19
1986:sendpack.S    **** 	out PORTB, r18
1987:sendpack.S    **** 	out PORTB, r19
1988:sendpack.S    **** 	out PORTB, r18
1989:sendpack.S    **** 	out PORTB, r19
1990:sendpack.S    **** 	out PORTB, r18
1991:sendpack.S    **** 	out PORTB, r18
1992:sendpack.S    **** 	out PORTB, r19
1993:sendpack.S    **** 	out PORTB, r19
1994:sendpack.S    **** 	out PORTB, r18
1995:sendpack.S    **** 	out PORTB, r18
1996:sendpack.S    **** 	out PORTB, r19
1997:sendpack.S    **** 	out PORTB, r19
1998:sendpack.S    **** 	out PORTB, r18
1999:sendpack.S    **** 	out PORTB, r18
2000:sendpack.S    **** 	out PORTB, r19
 2001               	
 2002               		 // 00
2003:sendpack.S    **** 	out PORTB, r19
2004:sendpack.S    **** 	out PORTB, r18
2005:sendpack.S    **** 	out PORTB, r19
2006:sendpack.S    **** 	out PORTB, r18
2007:sendpack.S    **** 	out PORTB, r19
2008:sendpack.S    **** 	out PORTB, r18
2009:sendpack.S    **** 	out PORTB, r19
2010:sendpack.S    **** 	out PORTB, r18
2011:sendpack.S    **** 	out PORTB, r19
2012:sendpack.S    **** 	out PORTB, r18
2013:sendpack.S    **** 	out PORTB, r19
2014:sendpack.S    **** 	out PORTB, r18
2015:sendpack.S    **** 	out PORTB, r19
2016:sendpack.S    **** 	out PORTB, r18
GAS LISTING /tmp/ccOpXWZF.s 			page 45


2017:sendpack.S    **** 	out PORTB, r19
2018:sendpack.S    **** 	out PORTB, r18
 2019               	
 2020               		 // 67
2021:sendpack.S    **** 	out PORTB, r18
2022:sendpack.S    **** 	out PORTB, r19
2023:sendpack.S    **** 	out PORTB, r18
2024:sendpack.S    **** 	out PORTB, r19
2025:sendpack.S    **** 	out PORTB, r18
2026:sendpack.S    **** 	out PORTB, r19
2027:sendpack.S    **** 	out PORTB, r19
2028:sendpack.S    **** 	out PORTB, r18
2029:sendpack.S    **** 	out PORTB, r19
2030:sendpack.S    **** 	out PORTB, r18
2031:sendpack.S    **** 	out PORTB, r18
2032:sendpack.S    **** 	out PORTB, r19
2033:sendpack.S    **** 	out PORTB, r18
2034:sendpack.S    **** 	out PORTB, r19
2035:sendpack.S    **** 	out PORTB, r19
2036:sendpack.S    **** 	out PORTB, r18
 2037               	
 2038               		 // ff
2039:sendpack.S    **** 	out PORTB, r18
2040:sendpack.S    **** 	out PORTB, r19
2041:sendpack.S    **** 	out PORTB, r18
2042:sendpack.S    **** 	out PORTB, r19
2043:sendpack.S    **** 	out PORTB, r18
2044:sendpack.S    **** 	out PORTB, r19
2045:sendpack.S    **** 	out PORTB, r18
2046:sendpack.S    **** 	out PORTB, r19
2047:sendpack.S    **** 	out PORTB, r18
2048:sendpack.S    **** 	out PORTB, r19
2049:sendpack.S    **** 	out PORTB, r18
2050:sendpack.S    **** 	out PORTB, r19
2051:sendpack.S    **** 	out PORTB, r18
2052:sendpack.S    **** 	out PORTB, r19
2053:sendpack.S    **** 	out PORTB, r18
2054:sendpack.S    **** 	out PORTB, r19
 2055               	
 2056               		 // ff
2057:sendpack.S    **** 	out PORTB, r18
2058:sendpack.S    **** 	out PORTB, r19
2059:sendpack.S    **** 	out PORTB, r18
2060:sendpack.S    **** 	out PORTB, r19
2061:sendpack.S    **** 	out PORTB, r18
2062:sendpack.S    **** 	out PORTB, r19
2063:sendpack.S    **** 	out PORTB, r18
2064:sendpack.S    **** 	out PORTB, r19
2065:sendpack.S    **** 	out PORTB, r18
2066:sendpack.S    **** 	out PORTB, r19
2067:sendpack.S    **** 	out PORTB, r18
2068:sendpack.S    **** 	out PORTB, r19
2069:sendpack.S    **** 	out PORTB, r18
2070:sendpack.S    **** 	out PORTB, r19
2071:sendpack.S    **** 	out PORTB, r18
2072:sendpack.S    **** 	out PORTB, r19
 2073               	
GAS LISTING /tmp/ccOpXWZF.s 			page 46


 2074               		 // ff
2075:sendpack.S    **** 	out PORTB, r18
2076:sendpack.S    **** 	out PORTB, r19
2077:sendpack.S    **** 	out PORTB, r18
2078:sendpack.S    **** 	out PORTB, r19
2079:sendpack.S    **** 	out PORTB, r18
2080:sendpack.S    **** 	out PORTB, r19
2081:sendpack.S    **** 	out PORTB, r18
2082:sendpack.S    **** 	out PORTB, r19
2083:sendpack.S    **** 	out PORTB, r18
2084:sendpack.S    **** 	out PORTB, r19
2085:sendpack.S    **** 	out PORTB, r18
2086:sendpack.S    **** 	out PORTB, r19
2087:sendpack.S    **** 	out PORTB, r18
2088:sendpack.S    **** 	out PORTB, r19
2089:sendpack.S    **** 	out PORTB, r18
2090:sendpack.S    **** 	out PORTB, r19
 2091               	
 2092               		 // ff
2093:sendpack.S    **** 	out PORTB, r18
2094:sendpack.S    **** 	out PORTB, r19
2095:sendpack.S    **** 	out PORTB, r18
2096:sendpack.S    **** 	out PORTB, r19
2097:sendpack.S    **** 	out PORTB, r18
2098:sendpack.S    **** 	out PORTB, r19
2099:sendpack.S    **** 	out PORTB, r18
2100:sendpack.S    **** 	out PORTB, r19
2101:sendpack.S    **** 	out PORTB, r18
2102:sendpack.S    **** 	out PORTB, r19
2103:sendpack.S    **** 	out PORTB, r18
2104:sendpack.S    **** 	out PORTB, r19
2105:sendpack.S    **** 	out PORTB, r18
2106:sendpack.S    **** 	out PORTB, r19
2107:sendpack.S    **** 	out PORTB, r18
2108:sendpack.S    **** 	out PORTB, r19
 2109               	
 2110               		 // 04
2111:sendpack.S    **** 	out PORTB, r19
2112:sendpack.S    **** 	out PORTB, r18
2113:sendpack.S    **** 	out PORTB, r19
2114:sendpack.S    **** 	out PORTB, r18
2115:sendpack.S    **** 	out PORTB, r18
2116:sendpack.S    **** 	out PORTB, r19
2117:sendpack.S    **** 	out PORTB, r19
2118:sendpack.S    **** 	out PORTB, r18
2119:sendpack.S    **** 	out PORTB, r19
2120:sendpack.S    **** 	out PORTB, r18
2121:sendpack.S    **** 	out PORTB, r19
2122:sendpack.S    **** 	out PORTB, r18
2123:sendpack.S    **** 	out PORTB, r19
2124:sendpack.S    **** 	out PORTB, r18
2125:sendpack.S    **** 	out PORTB, r19
2126:sendpack.S    **** 	out PORTB, r18
 2127               	
 2128               		 // 00
2129:sendpack.S    **** 	out PORTB, r19
2130:sendpack.S    **** 	out PORTB, r18
GAS LISTING /tmp/ccOpXWZF.s 			page 47


2131:sendpack.S    **** 	out PORTB, r19
2132:sendpack.S    **** 	out PORTB, r18
2133:sendpack.S    **** 	out PORTB, r19
2134:sendpack.S    **** 	out PORTB, r18
2135:sendpack.S    **** 	out PORTB, r19
2136:sendpack.S    **** 	out PORTB, r18
2137:sendpack.S    **** 	out PORTB, r19
2138:sendpack.S    **** 	out PORTB, r18
2139:sendpack.S    **** 	out PORTB, r19
2140:sendpack.S    **** 	out PORTB, r18
2141:sendpack.S    **** 	out PORTB, r19
2142:sendpack.S    **** 	out PORTB, r18
2143:sendpack.S    **** 	out PORTB, r19
2144:sendpack.S    **** 	out PORTB, r18
 2145               	
 2146               		 // 34
2147:sendpack.S    **** 	out PORTB, r19
2148:sendpack.S    **** 	out PORTB, r18
2149:sendpack.S    **** 	out PORTB, r19
2150:sendpack.S    **** 	out PORTB, r18
2151:sendpack.S    **** 	out PORTB, r18
2152:sendpack.S    **** 	out PORTB, r19
2153:sendpack.S    **** 	out PORTB, r19
2154:sendpack.S    **** 	out PORTB, r18
2155:sendpack.S    **** 	out PORTB, r18
2156:sendpack.S    **** 	out PORTB, r19
2157:sendpack.S    **** 	out PORTB, r18
2158:sendpack.S    **** 	out PORTB, r19
2159:sendpack.S    **** 	out PORTB, r19
2160:sendpack.S    **** 	out PORTB, r18
2161:sendpack.S    **** 	out PORTB, r19
2162:sendpack.S    **** 	out PORTB, r18
 2163               	
 2164               		 // 00
2165:sendpack.S    **** 	out PORTB, r19
2166:sendpack.S    **** 	out PORTB, r18
2167:sendpack.S    **** 	out PORTB, r19
2168:sendpack.S    **** 	out PORTB, r18
2169:sendpack.S    **** 	out PORTB, r19
2170:sendpack.S    **** 	out PORTB, r18
2171:sendpack.S    **** 	out PORTB, r19
2172:sendpack.S    **** 	out PORTB, r18
2173:sendpack.S    **** 	out PORTB, r19
2174:sendpack.S    **** 	out PORTB, r18
2175:sendpack.S    **** 	out PORTB, r19
2176:sendpack.S    **** 	out PORTB, r18
2177:sendpack.S    **** 	out PORTB, r19
2178:sendpack.S    **** 	out PORTB, r18
2179:sendpack.S    **** 	out PORTB, r19
2180:sendpack.S    **** 	out PORTB, r18
 2181               	
 2182               		 // 00
2183:sendpack.S    **** 	out PORTB, r19
2184:sendpack.S    **** 	out PORTB, r18
2185:sendpack.S    **** 	out PORTB, r19
2186:sendpack.S    **** 	out PORTB, r18
2187:sendpack.S    **** 	out PORTB, r19
GAS LISTING /tmp/ccOpXWZF.s 			page 48


2188:sendpack.S    **** 	out PORTB, r18
2189:sendpack.S    **** 	out PORTB, r19
2190:sendpack.S    **** 	out PORTB, r18
2191:sendpack.S    **** 	out PORTB, r19
2192:sendpack.S    **** 	out PORTB, r18
2193:sendpack.S    **** 	out PORTB, r19
2194:sendpack.S    **** 	out PORTB, r18
2195:sendpack.S    **** 	out PORTB, r19
2196:sendpack.S    **** 	out PORTB, r18
2197:sendpack.S    **** 	out PORTB, r19
2198:sendpack.S    **** 	out PORTB, r18
 2199               	
 2200               		 // 1a
2201:sendpack.S    **** 	out PORTB, r19
2202:sendpack.S    **** 	out PORTB, r18
2203:sendpack.S    **** 	out PORTB, r18
2204:sendpack.S    **** 	out PORTB, r19
2205:sendpack.S    **** 	out PORTB, r19
2206:sendpack.S    **** 	out PORTB, r18
2207:sendpack.S    **** 	out PORTB, r18
2208:sendpack.S    **** 	out PORTB, r19
2209:sendpack.S    **** 	out PORTB, r18
2210:sendpack.S    **** 	out PORTB, r19
2211:sendpack.S    **** 	out PORTB, r19
2212:sendpack.S    **** 	out PORTB, r18
2213:sendpack.S    **** 	out PORTB, r19
2214:sendpack.S    **** 	out PORTB, r18
2215:sendpack.S    **** 	out PORTB, r19
2216:sendpack.S    **** 	out PORTB, r18
 2217               	
 2218               		 // c4
2219:sendpack.S    **** 	out PORTB, r19
2220:sendpack.S    **** 	out PORTB, r18
2221:sendpack.S    **** 	out PORTB, r19
2222:sendpack.S    **** 	out PORTB, r18
2223:sendpack.S    **** 	out PORTB, r18
2224:sendpack.S    **** 	out PORTB, r19
2225:sendpack.S    **** 	out PORTB, r19
2226:sendpack.S    **** 	out PORTB, r18
2227:sendpack.S    **** 	out PORTB, r19
2228:sendpack.S    **** 	out PORTB, r18
2229:sendpack.S    **** 	out PORTB, r19
2230:sendpack.S    **** 	out PORTB, r18
2231:sendpack.S    **** 	out PORTB, r18
2232:sendpack.S    **** 	out PORTB, r19
2233:sendpack.S    **** 	out PORTB, r18
2234:sendpack.S    **** 	out PORTB, r19
 2235               	
 2236               		 // a0
2237:sendpack.S    **** 	out PORTB, r19
2238:sendpack.S    **** 	out PORTB, r18
2239:sendpack.S    **** 	out PORTB, r19
2240:sendpack.S    **** 	out PORTB, r18
2241:sendpack.S    **** 	out PORTB, r19
2242:sendpack.S    **** 	out PORTB, r18
2243:sendpack.S    **** 	out PORTB, r19
2244:sendpack.S    **** 	out PORTB, r18
GAS LISTING /tmp/ccOpXWZF.s 			page 49


2245:sendpack.S    **** 	out PORTB, r19
2246:sendpack.S    **** 	out PORTB, r18
2247:sendpack.S    **** 	out PORTB, r18
2248:sendpack.S    **** 	out PORTB, r19
2249:sendpack.S    **** 	out PORTB, r19
2250:sendpack.S    **** 	out PORTB, r18
2251:sendpack.S    **** 	out PORTB, r18
2252:sendpack.S    **** 	out PORTB, r19
 2253               	
 2254               		 // 42
2255:sendpack.S    **** 	out PORTB, r19
2256:sendpack.S    **** 	out PORTB, r18
2257:sendpack.S    **** 	out PORTB, r18
2258:sendpack.S    **** 	out PORTB, r19
2259:sendpack.S    **** 	out PORTB, r19
2260:sendpack.S    **** 	out PORTB, r18
2261:sendpack.S    **** 	out PORTB, r19
2262:sendpack.S    **** 	out PORTB, r18
2263:sendpack.S    **** 	out PORTB, r19
2264:sendpack.S    **** 	out PORTB, r18
2265:sendpack.S    **** 	out PORTB, r19
2266:sendpack.S    **** 	out PORTB, r18
2267:sendpack.S    **** 	out PORTB, r18
2268:sendpack.S    **** 	out PORTB, r19
2269:sendpack.S    **** 	out PORTB, r19
2270:sendpack.S    **** 	out PORTB, r18
 2271               	
 2272               		 // 0a
2273:sendpack.S    **** 	out PORTB, r19
2274:sendpack.S    **** 	out PORTB, r18
2275:sendpack.S    **** 	out PORTB, r18
2276:sendpack.S    **** 	out PORTB, r19
2277:sendpack.S    **** 	out PORTB, r19
2278:sendpack.S    **** 	out PORTB, r18
2279:sendpack.S    **** 	out PORTB, r18
2280:sendpack.S    **** 	out PORTB, r19
2281:sendpack.S    **** 	out PORTB, r19
2282:sendpack.S    **** 	out PORTB, r18
2283:sendpack.S    **** 	out PORTB, r19
2284:sendpack.S    **** 	out PORTB, r18
2285:sendpack.S    **** 	out PORTB, r19
2286:sendpack.S    **** 	out PORTB, r18
2287:sendpack.S    **** 	out PORTB, r19
2288:sendpack.S    **** 	out PORTB, r18
 2289               	
 2290               		 // 00
2291:sendpack.S    **** 	out PORTB, r19
2292:sendpack.S    **** 	out PORTB, r18
2293:sendpack.S    **** 	out PORTB, r19
2294:sendpack.S    **** 	out PORTB, r18
2295:sendpack.S    **** 	out PORTB, r19
2296:sendpack.S    **** 	out PORTB, r18
2297:sendpack.S    **** 	out PORTB, r19
2298:sendpack.S    **** 	out PORTB, r18
2299:sendpack.S    **** 	out PORTB, r19
2300:sendpack.S    **** 	out PORTB, r18
2301:sendpack.S    **** 	out PORTB, r19
GAS LISTING /tmp/ccOpXWZF.s 			page 50


2302:sendpack.S    **** 	out PORTB, r18
2303:sendpack.S    **** 	out PORTB, r19
2304:sendpack.S    **** 	out PORTB, r18
2305:sendpack.S    **** 	out PORTB, r19
2306:sendpack.S    **** 	out PORTB, r18
 2307               	
 2308               		 // 00
2309:sendpack.S    **** 	out PORTB, r19
2310:sendpack.S    **** 	out PORTB, r18
2311:sendpack.S    **** 	out PORTB, r19
2312:sendpack.S    **** 	out PORTB, r18
2313:sendpack.S    **** 	out PORTB, r19
2314:sendpack.S    **** 	out PORTB, r18
2315:sendpack.S    **** 	out PORTB, r19
2316:sendpack.S    **** 	out PORTB, r18
2317:sendpack.S    **** 	out PORTB, r19
2318:sendpack.S    **** 	out PORTB, r18
2319:sendpack.S    **** 	out PORTB, r19
2320:sendpack.S    **** 	out PORTB, r18
2321:sendpack.S    **** 	out PORTB, r19
2322:sendpack.S    **** 	out PORTB, r18
2323:sendpack.S    **** 	out PORTB, r19
2324:sendpack.S    **** 	out PORTB, r18
 2325               	
 2326               		 // 00
2327:sendpack.S    **** 	out PORTB, r19
2328:sendpack.S    **** 	out PORTB, r18
2329:sendpack.S    **** 	out PORTB, r19
2330:sendpack.S    **** 	out PORTB, r18
2331:sendpack.S    **** 	out PORTB, r19
2332:sendpack.S    **** 	out PORTB, r18
2333:sendpack.S    **** 	out PORTB, r19
2334:sendpack.S    **** 	out PORTB, r18
2335:sendpack.S    **** 	out PORTB, r19
2336:sendpack.S    **** 	out PORTB, r18
2337:sendpack.S    **** 	out PORTB, r19
2338:sendpack.S    **** 	out PORTB, r18
2339:sendpack.S    **** 	out PORTB, r19
2340:sendpack.S    **** 	out PORTB, r18
2341:sendpack.S    **** 	out PORTB, r19
2342:sendpack.S    **** 	out PORTB, r18
 2343               	
 2344               		 // 00
2345:sendpack.S    **** 	out PORTB, r19
2346:sendpack.S    **** 	out PORTB, r18
2347:sendpack.S    **** 	out PORTB, r19
2348:sendpack.S    **** 	out PORTB, r18
2349:sendpack.S    **** 	out PORTB, r19
2350:sendpack.S    **** 	out PORTB, r18
2351:sendpack.S    **** 	out PORTB, r19
2352:sendpack.S    **** 	out PORTB, r18
2353:sendpack.S    **** 	out PORTB, r19
2354:sendpack.S    **** 	out PORTB, r18
2355:sendpack.S    **** 	out PORTB, r19
2356:sendpack.S    **** 	out PORTB, r18
2357:sendpack.S    **** 	out PORTB, r19
2358:sendpack.S    **** 	out PORTB, r18
GAS LISTING /tmp/ccOpXWZF.s 			page 51


2359:sendpack.S    **** 	out PORTB, r19
2360:sendpack.S    **** 	out PORTB, r18
 2361               	
 2362               		 // 00
2363:sendpack.S    **** 	out PORTB, r19
2364:sendpack.S    **** 	out PORTB, r18
2365:sendpack.S    **** 	out PORTB, r19
2366:sendpack.S    **** 	out PORTB, r18
2367:sendpack.S    **** 	out PORTB, r19
2368:sendpack.S    **** 	out PORTB, r18
2369:sendpack.S    **** 	out PORTB, r19
2370:sendpack.S    **** 	out PORTB, r18
2371:sendpack.S    **** 	out PORTB, r19
2372:sendpack.S    **** 	out PORTB, r18
2373:sendpack.S    **** 	out PORTB, r19
2374:sendpack.S    **** 	out PORTB, r18
2375:sendpack.S    **** 	out PORTB, r19
2376:sendpack.S    **** 	out PORTB, r18
2377:sendpack.S    **** 	out PORTB, r19
2378:sendpack.S    **** 	out PORTB, r18
 2379               	
 2380               		 // 00
2381:sendpack.S    **** 	out PORTB, r19
2382:sendpack.S    **** 	out PORTB, r18
2383:sendpack.S    **** 	out PORTB, r19
2384:sendpack.S    **** 	out PORTB, r18
2385:sendpack.S    **** 	out PORTB, r19
2386:sendpack.S    **** 	out PORTB, r18
2387:sendpack.S    **** 	out PORTB, r19
2388:sendpack.S    **** 	out PORTB, r18
2389:sendpack.S    **** 	out PORTB, r19
2390:sendpack.S    **** 	out PORTB, r18
2391:sendpack.S    **** 	out PORTB, r19
2392:sendpack.S    **** 	out PORTB, r18
2393:sendpack.S    **** 	out PORTB, r19
2394:sendpack.S    **** 	out PORTB, r18
2395:sendpack.S    **** 	out PORTB, r19
2396:sendpack.S    **** 	out PORTB, r18
 2397               	
 2398               		 // 00
2399:sendpack.S    **** 	out PORTB, r19
2400:sendpack.S    **** 	out PORTB, r18
2401:sendpack.S    **** 	out PORTB, r19
2402:sendpack.S    **** 	out PORTB, r18
2403:sendpack.S    **** 	out PORTB, r19
2404:sendpack.S    **** 	out PORTB, r18
2405:sendpack.S    **** 	out PORTB, r19
2406:sendpack.S    **** 	out PORTB, r18
2407:sendpack.S    **** 	out PORTB, r19
2408:sendpack.S    **** 	out PORTB, r18
2409:sendpack.S    **** 	out PORTB, r19
2410:sendpack.S    **** 	out PORTB, r18
2411:sendpack.S    **** 	out PORTB, r19
2412:sendpack.S    **** 	out PORTB, r18
2413:sendpack.S    **** 	out PORTB, r19
2414:sendpack.S    **** 	out PORTB, r18
 2415               	
GAS LISTING /tmp/ccOpXWZF.s 			page 52


 2416               		 // 00
2417:sendpack.S    **** 	out PORTB, r19
2418:sendpack.S    **** 	out PORTB, r18
2419:sendpack.S    **** 	out PORTB, r19
2420:sendpack.S    **** 	out PORTB, r18
2421:sendpack.S    **** 	out PORTB, r19
2422:sendpack.S    **** 	out PORTB, r18
2423:sendpack.S    **** 	out PORTB, r19
2424:sendpack.S    **** 	out PORTB, r18
2425:sendpack.S    **** 	out PORTB, r19
2426:sendpack.S    **** 	out PORTB, r18
2427:sendpack.S    **** 	out PORTB, r19
2428:sendpack.S    **** 	out PORTB, r18
2429:sendpack.S    **** 	out PORTB, r19
2430:sendpack.S    **** 	out PORTB, r18
2431:sendpack.S    **** 	out PORTB, r19
2432:sendpack.S    **** 	out PORTB, r18
 2433               	
 2434               		 // 00
2435:sendpack.S    **** 	out PORTB, r19
2436:sendpack.S    **** 	out PORTB, r18
2437:sendpack.S    **** 	out PORTB, r19
2438:sendpack.S    **** 	out PORTB, r18
2439:sendpack.S    **** 	out PORTB, r19
2440:sendpack.S    **** 	out PORTB, r18
2441:sendpack.S    **** 	out PORTB, r19
2442:sendpack.S    **** 	out PORTB, r18
2443:sendpack.S    **** 	out PORTB, r19
2444:sendpack.S    **** 	out PORTB, r18
2445:sendpack.S    **** 	out PORTB, r19
2446:sendpack.S    **** 	out PORTB, r18
2447:sendpack.S    **** 	out PORTB, r19
2448:sendpack.S    **** 	out PORTB, r18
2449:sendpack.S    **** 	out PORTB, r19
2450:sendpack.S    **** 	out PORTB, r18
 2451               	
 2452               		 // 00
2453:sendpack.S    **** 	out PORTB, r19
2454:sendpack.S    **** 	out PORTB, r18
2455:sendpack.S    **** 	out PORTB, r19
2456:sendpack.S    **** 	out PORTB, r18
2457:sendpack.S    **** 	out PORTB, r19
2458:sendpack.S    **** 	out PORTB, r18
2459:sendpack.S    **** 	out PORTB, r19
2460:sendpack.S    **** 	out PORTB, r18
2461:sendpack.S    **** 	out PORTB, r19
2462:sendpack.S    **** 	out PORTB, r18
2463:sendpack.S    **** 	out PORTB, r19
2464:sendpack.S    **** 	out PORTB, r18
2465:sendpack.S    **** 	out PORTB, r19
2466:sendpack.S    **** 	out PORTB, r18
2467:sendpack.S    **** 	out PORTB, r19
2468:sendpack.S    **** 	out PORTB, r18
 2469               	
 2470               		 // 00
2471:sendpack.S    **** 	out PORTB, r19
2472:sendpack.S    **** 	out PORTB, r18
GAS LISTING /tmp/ccOpXWZF.s 			page 53


2473:sendpack.S    **** 	out PORTB, r19
2474:sendpack.S    **** 	out PORTB, r18
2475:sendpack.S    **** 	out PORTB, r19
2476:sendpack.S    **** 	out PORTB, r18
2477:sendpack.S    **** 	out PORTB, r19
2478:sendpack.S    **** 	out PORTB, r18
2479:sendpack.S    **** 	out PORTB, r19
2480:sendpack.S    **** 	out PORTB, r18
2481:sendpack.S    **** 	out PORTB, r19
2482:sendpack.S    **** 	out PORTB, r18
2483:sendpack.S    **** 	out PORTB, r19
2484:sendpack.S    **** 	out PORTB, r18
2485:sendpack.S    **** 	out PORTB, r19
2486:sendpack.S    **** 	out PORTB, r18
 2487               	
 2488               		 // 00
2489:sendpack.S    **** 	out PORTB, r19
2490:sendpack.S    **** 	out PORTB, r18
2491:sendpack.S    **** 	out PORTB, r19
2492:sendpack.S    **** 	out PORTB, r18
2493:sendpack.S    **** 	out PORTB, r19
2494:sendpack.S    **** 	out PORTB, r18
2495:sendpack.S    **** 	out PORTB, r19
2496:sendpack.S    **** 	out PORTB, r18
2497:sendpack.S    **** 	out PORTB, r19
2498:sendpack.S    **** 	out PORTB, r18
2499:sendpack.S    **** 	out PORTB, r19
2500:sendpack.S    **** 	out PORTB, r18
2501:sendpack.S    **** 	out PORTB, r19
2502:sendpack.S    **** 	out PORTB, r18
2503:sendpack.S    **** 	out PORTB, r19
2504:sendpack.S    **** 	out PORTB, r18
 2505               	
 2506               		 // 00
2507:sendpack.S    **** 	out PORTB, r19
2508:sendpack.S    **** 	out PORTB, r18
2509:sendpack.S    **** 	out PORTB, r19
2510:sendpack.S    **** 	out PORTB, r18
2511:sendpack.S    **** 	out PORTB, r19
2512:sendpack.S    **** 	out PORTB, r18
2513:sendpack.S    **** 	out PORTB, r19
2514:sendpack.S    **** 	out PORTB, r18
2515:sendpack.S    **** 	out PORTB, r19
2516:sendpack.S    **** 	out PORTB, r18
2517:sendpack.S    **** 	out PORTB, r19
2518:sendpack.S    **** 	out PORTB, r18
2519:sendpack.S    **** 	out PORTB, r19
2520:sendpack.S    **** 	out PORTB, r18
2521:sendpack.S    **** 	out PORTB, r19
2522:sendpack.S    **** 	out PORTB, r18
 2523               	
 2524               		 // 00
2525:sendpack.S    **** 	out PORTB, r19
2526:sendpack.S    **** 	out PORTB, r18
2527:sendpack.S    **** 	out PORTB, r19
2528:sendpack.S    **** 	out PORTB, r18
2529:sendpack.S    **** 	out PORTB, r19
GAS LISTING /tmp/ccOpXWZF.s 			page 54


2530:sendpack.S    **** 	out PORTB, r18
2531:sendpack.S    **** 	out PORTB, r19
2532:sendpack.S    **** 	out PORTB, r18
2533:sendpack.S    **** 	out PORTB, r19
2534:sendpack.S    **** 	out PORTB, r18
2535:sendpack.S    **** 	out PORTB, r19
2536:sendpack.S    **** 	out PORTB, r18
2537:sendpack.S    **** 	out PORTB, r19
2538:sendpack.S    **** 	out PORTB, r18
2539:sendpack.S    **** 	out PORTB, r19
2540:sendpack.S    **** 	out PORTB, r18
 2541               	
 2542               		 // 00
2543:sendpack.S    **** 	out PORTB, r19
2544:sendpack.S    **** 	out PORTB, r18
2545:sendpack.S    **** 	out PORTB, r19
2546:sendpack.S    **** 	out PORTB, r18
2547:sendpack.S    **** 	out PORTB, r19
2548:sendpack.S    **** 	out PORTB, r18
2549:sendpack.S    **** 	out PORTB, r19
2550:sendpack.S    **** 	out PORTB, r18
2551:sendpack.S    **** 	out PORTB, r19
2552:sendpack.S    **** 	out PORTB, r18
2553:sendpack.S    **** 	out PORTB, r19
2554:sendpack.S    **** 	out PORTB, r18
2555:sendpack.S    **** 	out PORTB, r19
2556:sendpack.S    **** 	out PORTB, r18
2557:sendpack.S    **** 	out PORTB, r19
2558:sendpack.S    **** 	out PORTB, r18
 2559               	
 2560               		 // 00
2561:sendpack.S    **** 	out PORTB, r19
2562:sendpack.S    **** 	out PORTB, r18
2563:sendpack.S    **** 	out PORTB, r19
2564:sendpack.S    **** 	out PORTB, r18
2565:sendpack.S    **** 	out PORTB, r19
2566:sendpack.S    **** 	out PORTB, r18
2567:sendpack.S    **** 	out PORTB, r19
2568:sendpack.S    **** 	out PORTB, r18
2569:sendpack.S    **** 	out PORTB, r19
2570:sendpack.S    **** 	out PORTB, r18
2571:sendpack.S    **** 	out PORTB, r19
2572:sendpack.S    **** 	out PORTB, r18
2573:sendpack.S    **** 	out PORTB, r19
2574:sendpack.S    **** 	out PORTB, r18
2575:sendpack.S    **** 	out PORTB, r19
2576:sendpack.S    **** 	out PORTB, r18
 2577               	
 2578               		 // 85
2579:sendpack.S    **** 	out PORTB, r18
2580:sendpack.S    **** 	out PORTB, r19
2581:sendpack.S    **** 	out PORTB, r19
2582:sendpack.S    **** 	out PORTB, r18
2583:sendpack.S    **** 	out PORTB, r18
2584:sendpack.S    **** 	out PORTB, r19
2585:sendpack.S    **** 	out PORTB, r19
2586:sendpack.S    **** 	out PORTB, r18
GAS LISTING /tmp/ccOpXWZF.s 			page 55


2587:sendpack.S    **** 	out PORTB, r19
2588:sendpack.S    **** 	out PORTB, r18
2589:sendpack.S    **** 	out PORTB, r19
2590:sendpack.S    **** 	out PORTB, r18
2591:sendpack.S    **** 	out PORTB, r19
2592:sendpack.S    **** 	out PORTB, r18
2593:sendpack.S    **** 	out PORTB, r18
2594:sendpack.S    **** 	out PORTB, r19
 2595               	
 2596               		 // bb
2597:sendpack.S    **** 	out PORTB, r18
2598:sendpack.S    **** 	out PORTB, r19
2599:sendpack.S    **** 	out PORTB, r18
2600:sendpack.S    **** 	out PORTB, r19
2601:sendpack.S    **** 	out PORTB, r19
2602:sendpack.S    **** 	out PORTB, r18
2603:sendpack.S    **** 	out PORTB, r18
2604:sendpack.S    **** 	out PORTB, r19
2605:sendpack.S    **** 	out PORTB, r18
2606:sendpack.S    **** 	out PORTB, r19
2607:sendpack.S    **** 	out PORTB, r18
2608:sendpack.S    **** 	out PORTB, r19
2609:sendpack.S    **** 	out PORTB, r19
2610:sendpack.S    **** 	out PORTB, r18
2611:sendpack.S    **** 	out PORTB, r18
2612:sendpack.S    **** 	out PORTB, r19
 2613               	
 2614               		 // bd
2615:sendpack.S    **** 	out PORTB, r18
2616:sendpack.S    **** 	out PORTB, r19
2617:sendpack.S    **** 	out PORTB, r19
2618:sendpack.S    **** 	out PORTB, r18
2619:sendpack.S    **** 	out PORTB, r18
2620:sendpack.S    **** 	out PORTB, r19
2621:sendpack.S    **** 	out PORTB, r18
2622:sendpack.S    **** 	out PORTB, r19
2623:sendpack.S    **** 	out PORTB, r18
2624:sendpack.S    **** 	out PORTB, r19
2625:sendpack.S    **** 	out PORTB, r18
2626:sendpack.S    **** 	out PORTB, r19
2627:sendpack.S    **** 	out PORTB, r19
2628:sendpack.S    **** 	out PORTB, r18
2629:sendpack.S    **** 	out PORTB, r18
2630:sendpack.S    **** 	out PORTB, r19
 2631               	
 2632               		 // 1e
2633:sendpack.S    **** 	out PORTB, r19
2634:sendpack.S    **** 	out PORTB, r18
2635:sendpack.S    **** 	out PORTB, r18
2636:sendpack.S    **** 	out PORTB, r19
2637:sendpack.S    **** 	out PORTB, r18
2638:sendpack.S    **** 	out PORTB, r19
2639:sendpack.S    **** 	out PORTB, r18
2640:sendpack.S    **** 	out PORTB, r19
2641:sendpack.S    **** 	out PORTB, r18
2642:sendpack.S    **** 	out PORTB, r19
2643:sendpack.S    **** 	out PORTB, r19
GAS LISTING /tmp/ccOpXWZF.s 			page 56


2644:sendpack.S    **** 	out PORTB, r18
2645:sendpack.S    **** 	out PORTB, r19
2646:sendpack.S    **** 	out PORTB, r18
2647:sendpack.S    **** 	out PORTB, r19
2648:sendpack.S    **** 	out PORTB, r18
 2649               	
2650:sendpack.S    **** 	out PORTB, r20
2651:sendpack.S    **** 	ret
 2652               	
 2653               	.global SendCPacket
 2654               	SendCPacket:
2655:sendpack.S    **** 	eor r18, r18
2656:sendpack.S    **** 	eor r19, r19
2657:sendpack.S    **** 	eor r20, r20
2658:sendpack.S    **** 	ori r18, 0b00010101
2659:sendpack.S    **** 	ori r19, 0b00001101
2660:sendpack.S    **** 	ori r20, 0b00000101
2661:sendpack.S    **** 	out PORTB, r18
 2662               		 // 55
2663:sendpack.S    **** 	out PORTB, r18
2664:sendpack.S    **** 	out PORTB, r19
2665:sendpack.S    **** 	out PORTB, r19
2666:sendpack.S    **** 	out PORTB, r18
2667:sendpack.S    **** 	out PORTB, r18
2668:sendpack.S    **** 	out PORTB, r19
2669:sendpack.S    **** 	out PORTB, r19
2670:sendpack.S    **** 	out PORTB, r18
2671:sendpack.S    **** 	out PORTB, r18
2672:sendpack.S    **** 	out PORTB, r19
2673:sendpack.S    **** 	out PORTB, r19
2674:sendpack.S    **** 	out PORTB, r18
2675:sendpack.S    **** 	out PORTB, r18
2676:sendpack.S    **** 	out PORTB, r19
2677:sendpack.S    **** 	out PORTB, r19
2678:sendpack.S    **** 	out PORTB, r18
 2679               	
 2680               		 // 55
2681:sendpack.S    **** 	out PORTB, r18
2682:sendpack.S    **** 	out PORTB, r19
2683:sendpack.S    **** 	out PORTB, r19
2684:sendpack.S    **** 	out PORTB, r18
2685:sendpack.S    **** 	out PORTB, r18
2686:sendpack.S    **** 	out PORTB, r19
2687:sendpack.S    **** 	out PORTB, r19
2688:sendpack.S    **** 	out PORTB, r18
2689:sendpack.S    **** 	out PORTB, r18
2690:sendpack.S    **** 	out PORTB, r19
2691:sendpack.S    **** 	out PORTB, r19
2692:sendpack.S    **** 	out PORTB, r18
2693:sendpack.S    **** 	out PORTB, r18
2694:sendpack.S    **** 	out PORTB, r19
2695:sendpack.S    **** 	out PORTB, r19
2696:sendpack.S    **** 	out PORTB, r18
 2697               	
 2698               		 // 55
2699:sendpack.S    **** 	out PORTB, r18
2700:sendpack.S    **** 	out PORTB, r19
GAS LISTING /tmp/ccOpXWZF.s 			page 57


2701:sendpack.S    **** 	out PORTB, r19
2702:sendpack.S    **** 	out PORTB, r18
2703:sendpack.S    **** 	out PORTB, r18
2704:sendpack.S    **** 	out PORTB, r19
2705:sendpack.S    **** 	out PORTB, r19
2706:sendpack.S    **** 	out PORTB, r18
2707:sendpack.S    **** 	out PORTB, r18
2708:sendpack.S    **** 	out PORTB, r19
2709:sendpack.S    **** 	out PORTB, r19
2710:sendpack.S    **** 	out PORTB, r18
2711:sendpack.S    **** 	out PORTB, r18
2712:sendpack.S    **** 	out PORTB, r19
2713:sendpack.S    **** 	out PORTB, r19
2714:sendpack.S    **** 	out PORTB, r18
 2715               	
 2716               		 // 55
2717:sendpack.S    **** 	out PORTB, r18
2718:sendpack.S    **** 	out PORTB, r19
2719:sendpack.S    **** 	out PORTB, r19
2720:sendpack.S    **** 	out PORTB, r18
2721:sendpack.S    **** 	out PORTB, r18
2722:sendpack.S    **** 	out PORTB, r19
2723:sendpack.S    **** 	out PORTB, r19
2724:sendpack.S    **** 	out PORTB, r18
2725:sendpack.S    **** 	out PORTB, r18
2726:sendpack.S    **** 	out PORTB, r19
2727:sendpack.S    **** 	out PORTB, r19
2728:sendpack.S    **** 	out PORTB, r18
2729:sendpack.S    **** 	out PORTB, r18
2730:sendpack.S    **** 	out PORTB, r19
2731:sendpack.S    **** 	out PORTB, r19
2732:sendpack.S    **** 	out PORTB, r18
 2733               	
 2734               		 // 55
2735:sendpack.S    **** 	out PORTB, r18
2736:sendpack.S    **** 	out PORTB, r19
2737:sendpack.S    **** 	out PORTB, r19
2738:sendpack.S    **** 	out PORTB, r18
2739:sendpack.S    **** 	out PORTB, r18
2740:sendpack.S    **** 	out PORTB, r19
2741:sendpack.S    **** 	out PORTB, r19
2742:sendpack.S    **** 	out PORTB, r18
2743:sendpack.S    **** 	out PORTB, r18
2744:sendpack.S    **** 	out PORTB, r19
2745:sendpack.S    **** 	out PORTB, r19
2746:sendpack.S    **** 	out PORTB, r18
2747:sendpack.S    **** 	out PORTB, r18
2748:sendpack.S    **** 	out PORTB, r19
2749:sendpack.S    **** 	out PORTB, r19
2750:sendpack.S    **** 	out PORTB, r18
 2751               	
 2752               		 // 55
2753:sendpack.S    **** 	out PORTB, r18
2754:sendpack.S    **** 	out PORTB, r19
2755:sendpack.S    **** 	out PORTB, r19
2756:sendpack.S    **** 	out PORTB, r18
2757:sendpack.S    **** 	out PORTB, r18
GAS LISTING /tmp/ccOpXWZF.s 			page 58


2758:sendpack.S    **** 	out PORTB, r19
2759:sendpack.S    **** 	out PORTB, r19
2760:sendpack.S    **** 	out PORTB, r18
2761:sendpack.S    **** 	out PORTB, r18
2762:sendpack.S    **** 	out PORTB, r19
2763:sendpack.S    **** 	out PORTB, r19
2764:sendpack.S    **** 	out PORTB, r18
2765:sendpack.S    **** 	out PORTB, r18
2766:sendpack.S    **** 	out PORTB, r19
2767:sendpack.S    **** 	out PORTB, r19
2768:sendpack.S    **** 	out PORTB, r18
 2769               	
 2770               		 // 55
2771:sendpack.S    **** 	out PORTB, r18
2772:sendpack.S    **** 	out PORTB, r19
2773:sendpack.S    **** 	out PORTB, r19
2774:sendpack.S    **** 	out PORTB, r18
2775:sendpack.S    **** 	out PORTB, r18
2776:sendpack.S    **** 	out PORTB, r19
2777:sendpack.S    **** 	out PORTB, r19
2778:sendpack.S    **** 	out PORTB, r18
2779:sendpack.S    **** 	out PORTB, r18
2780:sendpack.S    **** 	out PORTB, r19
2781:sendpack.S    **** 	out PORTB, r19
2782:sendpack.S    **** 	out PORTB, r18
2783:sendpack.S    **** 	out PORTB, r18
2784:sendpack.S    **** 	out PORTB, r19
2785:sendpack.S    **** 	out PORTB, r19
2786:sendpack.S    **** 	out PORTB, r18
 2787               	
 2788               		 // d5
2789:sendpack.S    **** 	out PORTB, r18
2790:sendpack.S    **** 	out PORTB, r19
2791:sendpack.S    **** 	out PORTB, r19
2792:sendpack.S    **** 	out PORTB, r18
2793:sendpack.S    **** 	out PORTB, r18
2794:sendpack.S    **** 	out PORTB, r19
2795:sendpack.S    **** 	out PORTB, r19
2796:sendpack.S    **** 	out PORTB, r18
2797:sendpack.S    **** 	out PORTB, r18
2798:sendpack.S    **** 	out PORTB, r19
2799:sendpack.S    **** 	out PORTB, r19
2800:sendpack.S    **** 	out PORTB, r18
2801:sendpack.S    **** 	out PORTB, r18
2802:sendpack.S    **** 	out PORTB, r19
2803:sendpack.S    **** 	out PORTB, r18
2804:sendpack.S    **** 	out PORTB, r19
 2805               	
2806:sendpack.S    **** //;MAC TO
2807:sendpack.S    **** //;MAC FROM (Change this)
2808:sendpack.S    **** //; IP; 20-byte header
2809:sendpack.S    **** //;Length
2810:sendpack.S    **** //;Identification?
2811:sendpack.S    **** //;Flags & Fragment
2812:sendpack.S    **** //;TTL
2813:sendpack.S    **** //;UDP
2814:sendpack.S    **** //;CHECKSUM
GAS LISTING /tmp/ccOpXWZF.s 			page 59


2815:sendpack.S    **** //; Address From
2816:sendpack.S    **** //;Source port
2817:sendpack.S    **** //;Dest port
2818:sendpack.S    **** //;Length + Checksum
2819:sendpack.S    **** //;Payload
2820:sendpack.S    **** 	 // ff
2821:sendpack.S    **** 	out PORTB, r18
2822:sendpack.S    **** 	out PORTB, r19
2823:sendpack.S    **** 	out PORTB, r18
2824:sendpack.S    **** 	out PORTB, r19
2825:sendpack.S    **** 	out PORTB, r18
2826:sendpack.S    **** 	out PORTB, r19
2827:sendpack.S    **** 	out PORTB, r18
2828:sendpack.S    **** 	out PORTB, r19
2829:sendpack.S    **** 	out PORTB, r18
2830:sendpack.S    **** 	out PORTB, r19
2831:sendpack.S    **** 	out PORTB, r18
2832:sendpack.S    **** 	out PORTB, r19
2833:sendpack.S    **** 	out PORTB, r18
2834:sendpack.S    **** 	out PORTB, r19
2835:sendpack.S    **** 	out PORTB, r18
2836:sendpack.S    **** 	out PORTB, r19
 2837               	
 2838               		 // ff
2839:sendpack.S    **** 	out PORTB, r18
2840:sendpack.S    **** 	out PORTB, r19
2841:sendpack.S    **** 	out PORTB, r18
2842:sendpack.S    **** 	out PORTB, r19
2843:sendpack.S    **** 	out PORTB, r18
2844:sendpack.S    **** 	out PORTB, r19
2845:sendpack.S    **** 	out PORTB, r18
2846:sendpack.S    **** 	out PORTB, r19
2847:sendpack.S    **** 	out PORTB, r18
2848:sendpack.S    **** 	out PORTB, r19
2849:sendpack.S    **** 	out PORTB, r18
2850:sendpack.S    **** 	out PORTB, r19
2851:sendpack.S    **** 	out PORTB, r18
2852:sendpack.S    **** 	out PORTB, r19
2853:sendpack.S    **** 	out PORTB, r18
2854:sendpack.S    **** 	out PORTB, r19
 2855               	
 2856               		 // ff
2857:sendpack.S    **** 	out PORTB, r18
2858:sendpack.S    **** 	out PORTB, r19
2859:sendpack.S    **** 	out PORTB, r18
2860:sendpack.S    **** 	out PORTB, r19
2861:sendpack.S    **** 	out PORTB, r18
2862:sendpack.S    **** 	out PORTB, r19
2863:sendpack.S    **** 	out PORTB, r18
2864:sendpack.S    **** 	out PORTB, r19
2865:sendpack.S    **** 	out PORTB, r18
2866:sendpack.S    **** 	out PORTB, r19
2867:sendpack.S    **** 	out PORTB, r18
2868:sendpack.S    **** 	out PORTB, r19
2869:sendpack.S    **** 	out PORTB, r18
2870:sendpack.S    **** 	out PORTB, r19
2871:sendpack.S    **** 	out PORTB, r18
GAS LISTING /tmp/ccOpXWZF.s 			page 60


2872:sendpack.S    **** 	out PORTB, r19
 2873               	
 2874               		 // ff
2875:sendpack.S    **** 	out PORTB, r18
2876:sendpack.S    **** 	out PORTB, r19
2877:sendpack.S    **** 	out PORTB, r18
2878:sendpack.S    **** 	out PORTB, r19
2879:sendpack.S    **** 	out PORTB, r18
2880:sendpack.S    **** 	out PORTB, r19
2881:sendpack.S    **** 	out PORTB, r18
2882:sendpack.S    **** 	out PORTB, r19
2883:sendpack.S    **** 	out PORTB, r18
2884:sendpack.S    **** 	out PORTB, r19
2885:sendpack.S    **** 	out PORTB, r18
2886:sendpack.S    **** 	out PORTB, r19
2887:sendpack.S    **** 	out PORTB, r18
2888:sendpack.S    **** 	out PORTB, r19
2889:sendpack.S    **** 	out PORTB, r18
2890:sendpack.S    **** 	out PORTB, r19
 2891               	
 2892               		 // ff
2893:sendpack.S    **** 	out PORTB, r18
2894:sendpack.S    **** 	out PORTB, r19
2895:sendpack.S    **** 	out PORTB, r18
2896:sendpack.S    **** 	out PORTB, r19
2897:sendpack.S    **** 	out PORTB, r18
2898:sendpack.S    **** 	out PORTB, r19
2899:sendpack.S    **** 	out PORTB, r18
2900:sendpack.S    **** 	out PORTB, r19
2901:sendpack.S    **** 	out PORTB, r18
2902:sendpack.S    **** 	out PORTB, r19
2903:sendpack.S    **** 	out PORTB, r18
2904:sendpack.S    **** 	out PORTB, r19
2905:sendpack.S    **** 	out PORTB, r18
2906:sendpack.S    **** 	out PORTB, r19
2907:sendpack.S    **** 	out PORTB, r18
2908:sendpack.S    **** 	out PORTB, r19
 2909               	
 2910               		 // ff
2911:sendpack.S    **** 	out PORTB, r18
2912:sendpack.S    **** 	out PORTB, r19
2913:sendpack.S    **** 	out PORTB, r18
2914:sendpack.S    **** 	out PORTB, r19
2915:sendpack.S    **** 	out PORTB, r18
2916:sendpack.S    **** 	out PORTB, r19
2917:sendpack.S    **** 	out PORTB, r18
2918:sendpack.S    **** 	out PORTB, r19
2919:sendpack.S    **** 	out PORTB, r18
2920:sendpack.S    **** 	out PORTB, r19
2921:sendpack.S    **** 	out PORTB, r18
2922:sendpack.S    **** 	out PORTB, r19
2923:sendpack.S    **** 	out PORTB, r18
2924:sendpack.S    **** 	out PORTB, r19
2925:sendpack.S    **** 	out PORTB, r18
2926:sendpack.S    **** 	out PORTB, r19
 2927               	
 2928               		 // 00
GAS LISTING /tmp/ccOpXWZF.s 			page 61


2929:sendpack.S    **** 	out PORTB, r19
2930:sendpack.S    **** 	out PORTB, r18
2931:sendpack.S    **** 	out PORTB, r19
2932:sendpack.S    **** 	out PORTB, r18
2933:sendpack.S    **** 	out PORTB, r19
2934:sendpack.S    **** 	out PORTB, r18
2935:sendpack.S    **** 	out PORTB, r19
2936:sendpack.S    **** 	out PORTB, r18
2937:sendpack.S    **** 	out PORTB, r19
2938:sendpack.S    **** 	out PORTB, r18
2939:sendpack.S    **** 	out PORTB, r19
2940:sendpack.S    **** 	out PORTB, r18
2941:sendpack.S    **** 	out PORTB, r19
2942:sendpack.S    **** 	out PORTB, r18
2943:sendpack.S    **** 	out PORTB, r19
2944:sendpack.S    **** 	out PORTB, r18
 2945               	
 2946               		 // 55
2947:sendpack.S    **** 	out PORTB, r18
2948:sendpack.S    **** 	out PORTB, r19
2949:sendpack.S    **** 	out PORTB, r19
2950:sendpack.S    **** 	out PORTB, r18
2951:sendpack.S    **** 	out PORTB, r18
2952:sendpack.S    **** 	out PORTB, r19
2953:sendpack.S    **** 	out PORTB, r19
2954:sendpack.S    **** 	out PORTB, r18
2955:sendpack.S    **** 	out PORTB, r18
2956:sendpack.S    **** 	out PORTB, r19
2957:sendpack.S    **** 	out PORTB, r19
2958:sendpack.S    **** 	out PORTB, r18
2959:sendpack.S    **** 	out PORTB, r18
2960:sendpack.S    **** 	out PORTB, r19
2961:sendpack.S    **** 	out PORTB, r19
2962:sendpack.S    **** 	out PORTB, r18
 2963               	
 2964               		 // 00
2965:sendpack.S    **** 	out PORTB, r19
2966:sendpack.S    **** 	out PORTB, r18
2967:sendpack.S    **** 	out PORTB, r19
2968:sendpack.S    **** 	out PORTB, r18
2969:sendpack.S    **** 	out PORTB, r19
2970:sendpack.S    **** 	out PORTB, r18
2971:sendpack.S    **** 	out PORTB, r19
2972:sendpack.S    **** 	out PORTB, r18
2973:sendpack.S    **** 	out PORTB, r19
2974:sendpack.S    **** 	out PORTB, r18
2975:sendpack.S    **** 	out PORTB, r19
2976:sendpack.S    **** 	out PORTB, r18
2977:sendpack.S    **** 	out PORTB, r19
2978:sendpack.S    **** 	out PORTB, r18
2979:sendpack.S    **** 	out PORTB, r19
2980:sendpack.S    **** 	out PORTB, r18
 2981               	
 2982               		 // 55
2983:sendpack.S    **** 	out PORTB, r18
2984:sendpack.S    **** 	out PORTB, r19
2985:sendpack.S    **** 	out PORTB, r19
GAS LISTING /tmp/ccOpXWZF.s 			page 62


2986:sendpack.S    **** 	out PORTB, r18
2987:sendpack.S    **** 	out PORTB, r18
2988:sendpack.S    **** 	out PORTB, r19
2989:sendpack.S    **** 	out PORTB, r19
2990:sendpack.S    **** 	out PORTB, r18
2991:sendpack.S    **** 	out PORTB, r18
2992:sendpack.S    **** 	out PORTB, r19
2993:sendpack.S    **** 	out PORTB, r19
2994:sendpack.S    **** 	out PORTB, r18
2995:sendpack.S    **** 	out PORTB, r18
2996:sendpack.S    **** 	out PORTB, r19
2997:sendpack.S    **** 	out PORTB, r19
2998:sendpack.S    **** 	out PORTB, r18
 2999               	
 3000               		 // 00
3001:sendpack.S    **** 	out PORTB, r19
3002:sendpack.S    **** 	out PORTB, r18
3003:sendpack.S    **** 	out PORTB, r19
3004:sendpack.S    **** 	out PORTB, r18
3005:sendpack.S    **** 	out PORTB, r19
3006:sendpack.S    **** 	out PORTB, r18
3007:sendpack.S    **** 	out PORTB, r19
3008:sendpack.S    **** 	out PORTB, r18
3009:sendpack.S    **** 	out PORTB, r19
3010:sendpack.S    **** 	out PORTB, r18
3011:sendpack.S    **** 	out PORTB, r19
3012:sendpack.S    **** 	out PORTB, r18
3013:sendpack.S    **** 	out PORTB, r19
3014:sendpack.S    **** 	out PORTB, r18
3015:sendpack.S    **** 	out PORTB, r19
3016:sendpack.S    **** 	out PORTB, r18
 3017               	
 3018               		 // 55
3019:sendpack.S    **** 	out PORTB, r18
3020:sendpack.S    **** 	out PORTB, r19
3021:sendpack.S    **** 	out PORTB, r19
3022:sendpack.S    **** 	out PORTB, r18
3023:sendpack.S    **** 	out PORTB, r18
3024:sendpack.S    **** 	out PORTB, r19
3025:sendpack.S    **** 	out PORTB, r19
3026:sendpack.S    **** 	out PORTB, r18
3027:sendpack.S    **** 	out PORTB, r18
3028:sendpack.S    **** 	out PORTB, r19
3029:sendpack.S    **** 	out PORTB, r19
3030:sendpack.S    **** 	out PORTB, r18
3031:sendpack.S    **** 	out PORTB, r18
3032:sendpack.S    **** 	out PORTB, r19
3033:sendpack.S    **** 	out PORTB, r19
3034:sendpack.S    **** 	out PORTB, r18
 3035               	
 3036               		 // 08
3037:sendpack.S    **** 	out PORTB, r19
3038:sendpack.S    **** 	out PORTB, r18
3039:sendpack.S    **** 	out PORTB, r19
3040:sendpack.S    **** 	out PORTB, r18
3041:sendpack.S    **** 	out PORTB, r19
3042:sendpack.S    **** 	out PORTB, r18
GAS LISTING /tmp/ccOpXWZF.s 			page 63


3043:sendpack.S    **** 	out PORTB, r18
3044:sendpack.S    **** 	out PORTB, r19
3045:sendpack.S    **** 	out PORTB, r19
3046:sendpack.S    **** 	out PORTB, r18
3047:sendpack.S    **** 	out PORTB, r19
3048:sendpack.S    **** 	out PORTB, r18
3049:sendpack.S    **** 	out PORTB, r19
3050:sendpack.S    **** 	out PORTB, r18
3051:sendpack.S    **** 	out PORTB, r19
3052:sendpack.S    **** 	out PORTB, r18
 3053               	
 3054               		 // 00
3055:sendpack.S    **** 	out PORTB, r19
3056:sendpack.S    **** 	out PORTB, r18
3057:sendpack.S    **** 	out PORTB, r19
3058:sendpack.S    **** 	out PORTB, r18
3059:sendpack.S    **** 	out PORTB, r19
3060:sendpack.S    **** 	out PORTB, r18
3061:sendpack.S    **** 	out PORTB, r19
3062:sendpack.S    **** 	out PORTB, r18
3063:sendpack.S    **** 	out PORTB, r19
3064:sendpack.S    **** 	out PORTB, r18
3065:sendpack.S    **** 	out PORTB, r19
3066:sendpack.S    **** 	out PORTB, r18
3067:sendpack.S    **** 	out PORTB, r19
3068:sendpack.S    **** 	out PORTB, r18
3069:sendpack.S    **** 	out PORTB, r19
3070:sendpack.S    **** 	out PORTB, r18
 3071               	
 3072               		 // 45
3073:sendpack.S    **** 	out PORTB, r18
3074:sendpack.S    **** 	out PORTB, r19
3075:sendpack.S    **** 	out PORTB, r19
3076:sendpack.S    **** 	out PORTB, r18
3077:sendpack.S    **** 	out PORTB, r18
3078:sendpack.S    **** 	out PORTB, r19
3079:sendpack.S    **** 	out PORTB, r19
3080:sendpack.S    **** 	out PORTB, r18
3081:sendpack.S    **** 	out PORTB, r19
3082:sendpack.S    **** 	out PORTB, r18
3083:sendpack.S    **** 	out PORTB, r19
3084:sendpack.S    **** 	out PORTB, r18
3085:sendpack.S    **** 	out PORTB, r18
3086:sendpack.S    **** 	out PORTB, r19
3087:sendpack.S    **** 	out PORTB, r19
3088:sendpack.S    **** 	out PORTB, r18
 3089               	
 3090               		 // 00
3091:sendpack.S    **** 	out PORTB, r19
3092:sendpack.S    **** 	out PORTB, r18
3093:sendpack.S    **** 	out PORTB, r19
3094:sendpack.S    **** 	out PORTB, r18
3095:sendpack.S    **** 	out PORTB, r19
3096:sendpack.S    **** 	out PORTB, r18
3097:sendpack.S    **** 	out PORTB, r19
3098:sendpack.S    **** 	out PORTB, r18
3099:sendpack.S    **** 	out PORTB, r19
GAS LISTING /tmp/ccOpXWZF.s 			page 64


3100:sendpack.S    **** 	out PORTB, r18
3101:sendpack.S    **** 	out PORTB, r19
3102:sendpack.S    **** 	out PORTB, r18
3103:sendpack.S    **** 	out PORTB, r19
3104:sendpack.S    **** 	out PORTB, r18
3105:sendpack.S    **** 	out PORTB, r19
3106:sendpack.S    **** 	out PORTB, r18
 3107               	
 3108               		 // 00
3109:sendpack.S    **** 	out PORTB, r19
3110:sendpack.S    **** 	out PORTB, r18
3111:sendpack.S    **** 	out PORTB, r19
3112:sendpack.S    **** 	out PORTB, r18
3113:sendpack.S    **** 	out PORTB, r19
3114:sendpack.S    **** 	out PORTB, r18
3115:sendpack.S    **** 	out PORTB, r19
3116:sendpack.S    **** 	out PORTB, r18
3117:sendpack.S    **** 	out PORTB, r19
3118:sendpack.S    **** 	out PORTB, r18
3119:sendpack.S    **** 	out PORTB, r19
3120:sendpack.S    **** 	out PORTB, r18
3121:sendpack.S    **** 	out PORTB, r19
3122:sendpack.S    **** 	out PORTB, r18
3123:sendpack.S    **** 	out PORTB, r19
3124:sendpack.S    **** 	out PORTB, r18
 3125               	
 3126               		 // 2e
3127:sendpack.S    **** 	out PORTB, r19
3128:sendpack.S    **** 	out PORTB, r18
3129:sendpack.S    **** 	out PORTB, r18
3130:sendpack.S    **** 	out PORTB, r19
3131:sendpack.S    **** 	out PORTB, r18
3132:sendpack.S    **** 	out PORTB, r19
3133:sendpack.S    **** 	out PORTB, r18
3134:sendpack.S    **** 	out PORTB, r19
3135:sendpack.S    **** 	out PORTB, r19
3136:sendpack.S    **** 	out PORTB, r18
3137:sendpack.S    **** 	out PORTB, r18
3138:sendpack.S    **** 	out PORTB, r19
3139:sendpack.S    **** 	out PORTB, r19
3140:sendpack.S    **** 	out PORTB, r18
3141:sendpack.S    **** 	out PORTB, r19
3142:sendpack.S    **** 	out PORTB, r18
 3143               	
 3144               		 // b3
3145:sendpack.S    **** 	out PORTB, r18
3146:sendpack.S    **** 	out PORTB, r19
3147:sendpack.S    **** 	out PORTB, r18
3148:sendpack.S    **** 	out PORTB, r19
3149:sendpack.S    **** 	out PORTB, r19
3150:sendpack.S    **** 	out PORTB, r18
3151:sendpack.S    **** 	out PORTB, r19
3152:sendpack.S    **** 	out PORTB, r18
3153:sendpack.S    **** 	out PORTB, r18
3154:sendpack.S    **** 	out PORTB, r19
3155:sendpack.S    **** 	out PORTB, r18
3156:sendpack.S    **** 	out PORTB, r19
GAS LISTING /tmp/ccOpXWZF.s 			page 65


3157:sendpack.S    **** 	out PORTB, r19
3158:sendpack.S    **** 	out PORTB, r18
3159:sendpack.S    **** 	out PORTB, r18
3160:sendpack.S    **** 	out PORTB, r19
 3161               	
 3162               		 // 1e
3163:sendpack.S    **** 	out PORTB, r19
3164:sendpack.S    **** 	out PORTB, r18
3165:sendpack.S    **** 	out PORTB, r18
3166:sendpack.S    **** 	out PORTB, r19
3167:sendpack.S    **** 	out PORTB, r18
3168:sendpack.S    **** 	out PORTB, r19
3169:sendpack.S    **** 	out PORTB, r18
3170:sendpack.S    **** 	out PORTB, r19
3171:sendpack.S    **** 	out PORTB, r18
3172:sendpack.S    **** 	out PORTB, r19
3173:sendpack.S    **** 	out PORTB, r19
3174:sendpack.S    **** 	out PORTB, r18
3175:sendpack.S    **** 	out PORTB, r19
3176:sendpack.S    **** 	out PORTB, r18
3177:sendpack.S    **** 	out PORTB, r19
3178:sendpack.S    **** 	out PORTB, r18
 3179               	
 3180               		 // 00
3181:sendpack.S    **** 	out PORTB, r19
3182:sendpack.S    **** 	out PORTB, r18
3183:sendpack.S    **** 	out PORTB, r19
3184:sendpack.S    **** 	out PORTB, r18
3185:sendpack.S    **** 	out PORTB, r19
3186:sendpack.S    **** 	out PORTB, r18
3187:sendpack.S    **** 	out PORTB, r19
3188:sendpack.S    **** 	out PORTB, r18
3189:sendpack.S    **** 	out PORTB, r19
3190:sendpack.S    **** 	out PORTB, r18
3191:sendpack.S    **** 	out PORTB, r19
3192:sendpack.S    **** 	out PORTB, r18
3193:sendpack.S    **** 	out PORTB, r19
3194:sendpack.S    **** 	out PORTB, r18
3195:sendpack.S    **** 	out PORTB, r19
3196:sendpack.S    **** 	out PORTB, r18
 3197               	
 3198               		 // 00
3199:sendpack.S    **** 	out PORTB, r19
3200:sendpack.S    **** 	out PORTB, r18
3201:sendpack.S    **** 	out PORTB, r19
3202:sendpack.S    **** 	out PORTB, r18
3203:sendpack.S    **** 	out PORTB, r19
3204:sendpack.S    **** 	out PORTB, r18
3205:sendpack.S    **** 	out PORTB, r19
3206:sendpack.S    **** 	out PORTB, r18
3207:sendpack.S    **** 	out PORTB, r19
3208:sendpack.S    **** 	out PORTB, r18
3209:sendpack.S    **** 	out PORTB, r19
3210:sendpack.S    **** 	out PORTB, r18
3211:sendpack.S    **** 	out PORTB, r19
3212:sendpack.S    **** 	out PORTB, r18
3213:sendpack.S    **** 	out PORTB, r19
GAS LISTING /tmp/ccOpXWZF.s 			page 66


3214:sendpack.S    **** 	out PORTB, r18
 3215               	
 3216               		 // 80
3217:sendpack.S    **** 	out PORTB, r19
3218:sendpack.S    **** 	out PORTB, r18
3219:sendpack.S    **** 	out PORTB, r19
3220:sendpack.S    **** 	out PORTB, r18
3221:sendpack.S    **** 	out PORTB, r19
3222:sendpack.S    **** 	out PORTB, r18
3223:sendpack.S    **** 	out PORTB, r19
3224:sendpack.S    **** 	out PORTB, r18
3225:sendpack.S    **** 	out PORTB, r19
3226:sendpack.S    **** 	out PORTB, r18
3227:sendpack.S    **** 	out PORTB, r19
3228:sendpack.S    **** 	out PORTB, r18
3229:sendpack.S    **** 	out PORTB, r19
3230:sendpack.S    **** 	out PORTB, r18
3231:sendpack.S    **** 	out PORTB, r18
3232:sendpack.S    **** 	out PORTB, r19
 3233               	
 3234               		 // 11
3235:sendpack.S    **** 	out PORTB, r18
3236:sendpack.S    **** 	out PORTB, r19
3237:sendpack.S    **** 	out PORTB, r19
3238:sendpack.S    **** 	out PORTB, r18
3239:sendpack.S    **** 	out PORTB, r19
3240:sendpack.S    **** 	out PORTB, r18
3241:sendpack.S    **** 	out PORTB, r19
3242:sendpack.S    **** 	out PORTB, r18
3243:sendpack.S    **** 	out PORTB, r18
3244:sendpack.S    **** 	out PORTB, r19
3245:sendpack.S    **** 	out PORTB, r19
3246:sendpack.S    **** 	out PORTB, r18
3247:sendpack.S    **** 	out PORTB, r19
3248:sendpack.S    **** 	out PORTB, r18
3249:sendpack.S    **** 	out PORTB, r19
3250:sendpack.S    **** 	out PORTB, r18
 3251               	
 3252               		 // c6
3253:sendpack.S    **** 	out PORTB, r19
3254:sendpack.S    **** 	out PORTB, r18
3255:sendpack.S    **** 	out PORTB, r18
3256:sendpack.S    **** 	out PORTB, r19
3257:sendpack.S    **** 	out PORTB, r18
3258:sendpack.S    **** 	out PORTB, r19
3259:sendpack.S    **** 	out PORTB, r19
3260:sendpack.S    **** 	out PORTB, r18
3261:sendpack.S    **** 	out PORTB, r19
3262:sendpack.S    **** 	out PORTB, r18
3263:sendpack.S    **** 	out PORTB, r19
3264:sendpack.S    **** 	out PORTB, r18
3265:sendpack.S    **** 	out PORTB, r18
3266:sendpack.S    **** 	out PORTB, r19
3267:sendpack.S    **** 	out PORTB, r18
3268:sendpack.S    **** 	out PORTB, r19
 3269               	
 3270               		 // 91
GAS LISTING /tmp/ccOpXWZF.s 			page 67


3271:sendpack.S    **** 	out PORTB, r18
3272:sendpack.S    **** 	out PORTB, r19
3273:sendpack.S    **** 	out PORTB, r19
3274:sendpack.S    **** 	out PORTB, r18
3275:sendpack.S    **** 	out PORTB, r19
3276:sendpack.S    **** 	out PORTB, r18
3277:sendpack.S    **** 	out PORTB, r19
3278:sendpack.S    **** 	out PORTB, r18
3279:sendpack.S    **** 	out PORTB, r18
3280:sendpack.S    **** 	out PORTB, r19
3281:sendpack.S    **** 	out PORTB, r19
3282:sendpack.S    **** 	out PORTB, r18
3283:sendpack.S    **** 	out PORTB, r19
3284:sendpack.S    **** 	out PORTB, r18
3285:sendpack.S    **** 	out PORTB, r18
3286:sendpack.S    **** 	out PORTB, r19
 3287               	
 3288               		 // c0
3289:sendpack.S    **** 	out PORTB, r19
3290:sendpack.S    **** 	out PORTB, r18
3291:sendpack.S    **** 	out PORTB, r19
3292:sendpack.S    **** 	out PORTB, r18
3293:sendpack.S    **** 	out PORTB, r19
3294:sendpack.S    **** 	out PORTB, r18
3295:sendpack.S    **** 	out PORTB, r19
3296:sendpack.S    **** 	out PORTB, r18
3297:sendpack.S    **** 	out PORTB, r19
3298:sendpack.S    **** 	out PORTB, r18
3299:sendpack.S    **** 	out PORTB, r19
3300:sendpack.S    **** 	out PORTB, r18
3301:sendpack.S    **** 	out PORTB, r18
3302:sendpack.S    **** 	out PORTB, r19
3303:sendpack.S    **** 	out PORTB, r18
3304:sendpack.S    **** 	out PORTB, r19
 3305               	
 3306               		 // a8
3307:sendpack.S    **** 	out PORTB, r19
3308:sendpack.S    **** 	out PORTB, r18
3309:sendpack.S    **** 	out PORTB, r19
3310:sendpack.S    **** 	out PORTB, r18
3311:sendpack.S    **** 	out PORTB, r19
3312:sendpack.S    **** 	out PORTB, r18
3313:sendpack.S    **** 	out PORTB, r18
3314:sendpack.S    **** 	out PORTB, r19
3315:sendpack.S    **** 	out PORTB, r19
3316:sendpack.S    **** 	out PORTB, r18
3317:sendpack.S    **** 	out PORTB, r18
3318:sendpack.S    **** 	out PORTB, r19
3319:sendpack.S    **** 	out PORTB, r19
3320:sendpack.S    **** 	out PORTB, r18
3321:sendpack.S    **** 	out PORTB, r18
3322:sendpack.S    **** 	out PORTB, r19
 3323               	
 3324               		 // 00
3325:sendpack.S    **** 	out PORTB, r19
3326:sendpack.S    **** 	out PORTB, r18
3327:sendpack.S    **** 	out PORTB, r19
GAS LISTING /tmp/ccOpXWZF.s 			page 68


3328:sendpack.S    **** 	out PORTB, r18
3329:sendpack.S    **** 	out PORTB, r19
3330:sendpack.S    **** 	out PORTB, r18
3331:sendpack.S    **** 	out PORTB, r19
3332:sendpack.S    **** 	out PORTB, r18
3333:sendpack.S    **** 	out PORTB, r19
3334:sendpack.S    **** 	out PORTB, r18
3335:sendpack.S    **** 	out PORTB, r19
3336:sendpack.S    **** 	out PORTB, r18
3337:sendpack.S    **** 	out PORTB, r19
3338:sendpack.S    **** 	out PORTB, r18
3339:sendpack.S    **** 	out PORTB, r19
3340:sendpack.S    **** 	out PORTB, r18
 3341               	
 3342               		 // 67
3343:sendpack.S    **** 	out PORTB, r18
3344:sendpack.S    **** 	out PORTB, r19
3345:sendpack.S    **** 	out PORTB, r18
3346:sendpack.S    **** 	out PORTB, r19
3347:sendpack.S    **** 	out PORTB, r18
3348:sendpack.S    **** 	out PORTB, r19
3349:sendpack.S    **** 	out PORTB, r19
3350:sendpack.S    **** 	out PORTB, r18
3351:sendpack.S    **** 	out PORTB, r19
3352:sendpack.S    **** 	out PORTB, r18
3353:sendpack.S    **** 	out PORTB, r18
3354:sendpack.S    **** 	out PORTB, r19
3355:sendpack.S    **** 	out PORTB, r18
3356:sendpack.S    **** 	out PORTB, r19
3357:sendpack.S    **** 	out PORTB, r19
3358:sendpack.S    **** 	out PORTB, r18
 3359               	
 3360               		 // ff
3361:sendpack.S    **** 	out PORTB, r18
3362:sendpack.S    **** 	out PORTB, r19
3363:sendpack.S    **** 	out PORTB, r18
3364:sendpack.S    **** 	out PORTB, r19
3365:sendpack.S    **** 	out PORTB, r18
3366:sendpack.S    **** 	out PORTB, r19
3367:sendpack.S    **** 	out PORTB, r18
3368:sendpack.S    **** 	out PORTB, r19
3369:sendpack.S    **** 	out PORTB, r18
3370:sendpack.S    **** 	out PORTB, r19
3371:sendpack.S    **** 	out PORTB, r18
3372:sendpack.S    **** 	out PORTB, r19
3373:sendpack.S    **** 	out PORTB, r18
3374:sendpack.S    **** 	out PORTB, r19
3375:sendpack.S    **** 	out PORTB, r18
3376:sendpack.S    **** 	out PORTB, r19
 3377               	
 3378               		 // ff
3379:sendpack.S    **** 	out PORTB, r18
3380:sendpack.S    **** 	out PORTB, r19
3381:sendpack.S    **** 	out PORTB, r18
3382:sendpack.S    **** 	out PORTB, r19
3383:sendpack.S    **** 	out PORTB, r18
3384:sendpack.S    **** 	out PORTB, r19
GAS LISTING /tmp/ccOpXWZF.s 			page 69


3385:sendpack.S    **** 	out PORTB, r18
3386:sendpack.S    **** 	out PORTB, r19
3387:sendpack.S    **** 	out PORTB, r18
3388:sendpack.S    **** 	out PORTB, r19
3389:sendpack.S    **** 	out PORTB, r18
3390:sendpack.S    **** 	out PORTB, r19
3391:sendpack.S    **** 	out PORTB, r18
3392:sendpack.S    **** 	out PORTB, r19
3393:sendpack.S    **** 	out PORTB, r18
3394:sendpack.S    **** 	out PORTB, r19
 3395               	
 3396               		 // ff
3397:sendpack.S    **** 	out PORTB, r18
3398:sendpack.S    **** 	out PORTB, r19
3399:sendpack.S    **** 	out PORTB, r18
3400:sendpack.S    **** 	out PORTB, r19
3401:sendpack.S    **** 	out PORTB, r18
3402:sendpack.S    **** 	out PORTB, r19
3403:sendpack.S    **** 	out PORTB, r18
3404:sendpack.S    **** 	out PORTB, r19
3405:sendpack.S    **** 	out PORTB, r18
3406:sendpack.S    **** 	out PORTB, r19
3407:sendpack.S    **** 	out PORTB, r18
3408:sendpack.S    **** 	out PORTB, r19
3409:sendpack.S    **** 	out PORTB, r18
3410:sendpack.S    **** 	out PORTB, r19
3411:sendpack.S    **** 	out PORTB, r18
3412:sendpack.S    **** 	out PORTB, r19
 3413               	
 3414               		 // ff
3415:sendpack.S    **** 	out PORTB, r18
3416:sendpack.S    **** 	out PORTB, r19
3417:sendpack.S    **** 	out PORTB, r18
3418:sendpack.S    **** 	out PORTB, r19
3419:sendpack.S    **** 	out PORTB, r18
3420:sendpack.S    **** 	out PORTB, r19
3421:sendpack.S    **** 	out PORTB, r18
3422:sendpack.S    **** 	out PORTB, r19
3423:sendpack.S    **** 	out PORTB, r18
3424:sendpack.S    **** 	out PORTB, r19
3425:sendpack.S    **** 	out PORTB, r18
3426:sendpack.S    **** 	out PORTB, r19
3427:sendpack.S    **** 	out PORTB, r18
3428:sendpack.S    **** 	out PORTB, r19
3429:sendpack.S    **** 	out PORTB, r18
3430:sendpack.S    **** 	out PORTB, r19
 3431               	
 3432               		 // 04
3433:sendpack.S    **** 	out PORTB, r19
3434:sendpack.S    **** 	out PORTB, r18
3435:sendpack.S    **** 	out PORTB, r19
3436:sendpack.S    **** 	out PORTB, r18
3437:sendpack.S    **** 	out PORTB, r18
3438:sendpack.S    **** 	out PORTB, r19
3439:sendpack.S    **** 	out PORTB, r19
3440:sendpack.S    **** 	out PORTB, r18
3441:sendpack.S    **** 	out PORTB, r19
GAS LISTING /tmp/ccOpXWZF.s 			page 70


3442:sendpack.S    **** 	out PORTB, r18
3443:sendpack.S    **** 	out PORTB, r19
3444:sendpack.S    **** 	out PORTB, r18
3445:sendpack.S    **** 	out PORTB, r19
3446:sendpack.S    **** 	out PORTB, r18
3447:sendpack.S    **** 	out PORTB, r19
3448:sendpack.S    **** 	out PORTB, r18
 3449               	
 3450               		 // 00
3451:sendpack.S    **** 	out PORTB, r19
3452:sendpack.S    **** 	out PORTB, r18
3453:sendpack.S    **** 	out PORTB, r19
3454:sendpack.S    **** 	out PORTB, r18
3455:sendpack.S    **** 	out PORTB, r19
3456:sendpack.S    **** 	out PORTB, r18
3457:sendpack.S    **** 	out PORTB, r19
3458:sendpack.S    **** 	out PORTB, r18
3459:sendpack.S    **** 	out PORTB, r19
3460:sendpack.S    **** 	out PORTB, r18
3461:sendpack.S    **** 	out PORTB, r19
3462:sendpack.S    **** 	out PORTB, r18
3463:sendpack.S    **** 	out PORTB, r19
3464:sendpack.S    **** 	out PORTB, r18
3465:sendpack.S    **** 	out PORTB, r19
3466:sendpack.S    **** 	out PORTB, r18
 3467               	
 3468               		 // 34
3469:sendpack.S    **** 	out PORTB, r19
3470:sendpack.S    **** 	out PORTB, r18
3471:sendpack.S    **** 	out PORTB, r19
3472:sendpack.S    **** 	out PORTB, r18
3473:sendpack.S    **** 	out PORTB, r18
3474:sendpack.S    **** 	out PORTB, r19
3475:sendpack.S    **** 	out PORTB, r19
3476:sendpack.S    **** 	out PORTB, r18
3477:sendpack.S    **** 	out PORTB, r18
3478:sendpack.S    **** 	out PORTB, r19
3479:sendpack.S    **** 	out PORTB, r18
3480:sendpack.S    **** 	out PORTB, r19
3481:sendpack.S    **** 	out PORTB, r19
3482:sendpack.S    **** 	out PORTB, r18
3483:sendpack.S    **** 	out PORTB, r19
3484:sendpack.S    **** 	out PORTB, r18
 3485               	
 3486               		 // 00
3487:sendpack.S    **** 	out PORTB, r19
3488:sendpack.S    **** 	out PORTB, r18
3489:sendpack.S    **** 	out PORTB, r19
3490:sendpack.S    **** 	out PORTB, r18
3491:sendpack.S    **** 	out PORTB, r19
3492:sendpack.S    **** 	out PORTB, r18
3493:sendpack.S    **** 	out PORTB, r19
3494:sendpack.S    **** 	out PORTB, r18
3495:sendpack.S    **** 	out PORTB, r19
3496:sendpack.S    **** 	out PORTB, r18
3497:sendpack.S    **** 	out PORTB, r19
3498:sendpack.S    **** 	out PORTB, r18
GAS LISTING /tmp/ccOpXWZF.s 			page 71


3499:sendpack.S    **** 	out PORTB, r19
3500:sendpack.S    **** 	out PORTB, r18
3501:sendpack.S    **** 	out PORTB, r19
3502:sendpack.S    **** 	out PORTB, r18
 3503               	
 3504               		 // 00
3505:sendpack.S    **** 	out PORTB, r19
3506:sendpack.S    **** 	out PORTB, r18
3507:sendpack.S    **** 	out PORTB, r19
3508:sendpack.S    **** 	out PORTB, r18
3509:sendpack.S    **** 	out PORTB, r19
3510:sendpack.S    **** 	out PORTB, r18
3511:sendpack.S    **** 	out PORTB, r19
3512:sendpack.S    **** 	out PORTB, r18
3513:sendpack.S    **** 	out PORTB, r19
3514:sendpack.S    **** 	out PORTB, r18
3515:sendpack.S    **** 	out PORTB, r19
3516:sendpack.S    **** 	out PORTB, r18
3517:sendpack.S    **** 	out PORTB, r19
3518:sendpack.S    **** 	out PORTB, r18
3519:sendpack.S    **** 	out PORTB, r19
3520:sendpack.S    **** 	out PORTB, r18
 3521               	
 3522               		 // 1a
3523:sendpack.S    **** 	out PORTB, r19
3524:sendpack.S    **** 	out PORTB, r18
3525:sendpack.S    **** 	out PORTB, r18
3526:sendpack.S    **** 	out PORTB, r19
3527:sendpack.S    **** 	out PORTB, r19
3528:sendpack.S    **** 	out PORTB, r18
3529:sendpack.S    **** 	out PORTB, r18
3530:sendpack.S    **** 	out PORTB, r19
3531:sendpack.S    **** 	out PORTB, r18
3532:sendpack.S    **** 	out PORTB, r19
3533:sendpack.S    **** 	out PORTB, r19
3534:sendpack.S    **** 	out PORTB, r18
3535:sendpack.S    **** 	out PORTB, r19
3536:sendpack.S    **** 	out PORTB, r18
3537:sendpack.S    **** 	out PORTB, r19
3538:sendpack.S    **** 	out PORTB, r18
 3539               	
 3540               		 // c3
3541:sendpack.S    **** 	out PORTB, r18
3542:sendpack.S    **** 	out PORTB, r19
3543:sendpack.S    **** 	out PORTB, r18
3544:sendpack.S    **** 	out PORTB, r19
3545:sendpack.S    **** 	out PORTB, r19
3546:sendpack.S    **** 	out PORTB, r18
3547:sendpack.S    **** 	out PORTB, r19
3548:sendpack.S    **** 	out PORTB, r18
3549:sendpack.S    **** 	out PORTB, r19
3550:sendpack.S    **** 	out PORTB, r18
3551:sendpack.S    **** 	out PORTB, r19
3552:sendpack.S    **** 	out PORTB, r18
3553:sendpack.S    **** 	out PORTB, r18
3554:sendpack.S    **** 	out PORTB, r19
3555:sendpack.S    **** 	out PORTB, r18
GAS LISTING /tmp/ccOpXWZF.s 			page 72


3556:sendpack.S    **** 	out PORTB, r19
 3557               	
 3558               		 // a0
3559:sendpack.S    **** 	out PORTB, r19
3560:sendpack.S    **** 	out PORTB, r18
3561:sendpack.S    **** 	out PORTB, r19
3562:sendpack.S    **** 	out PORTB, r18
3563:sendpack.S    **** 	out PORTB, r19
3564:sendpack.S    **** 	out PORTB, r18
3565:sendpack.S    **** 	out PORTB, r19
3566:sendpack.S    **** 	out PORTB, r18
3567:sendpack.S    **** 	out PORTB, r19
3568:sendpack.S    **** 	out PORTB, r18
3569:sendpack.S    **** 	out PORTB, r18
3570:sendpack.S    **** 	out PORTB, r19
3571:sendpack.S    **** 	out PORTB, r19
3572:sendpack.S    **** 	out PORTB, r18
3573:sendpack.S    **** 	out PORTB, r18
3574:sendpack.S    **** 	out PORTB, r19
 3575               	
 3576               		 // 43
3577:sendpack.S    **** 	out PORTB, r18
3578:sendpack.S    **** 	out PORTB, r19
3579:sendpack.S    **** 	out PORTB, r18
3580:sendpack.S    **** 	out PORTB, r19
3581:sendpack.S    **** 	out PORTB, r19
3582:sendpack.S    **** 	out PORTB, r18
3583:sendpack.S    **** 	out PORTB, r19
3584:sendpack.S    **** 	out PORTB, r18
3585:sendpack.S    **** 	out PORTB, r19
3586:sendpack.S    **** 	out PORTB, r18
3587:sendpack.S    **** 	out PORTB, r19
3588:sendpack.S    **** 	out PORTB, r18
3589:sendpack.S    **** 	out PORTB, r18
3590:sendpack.S    **** 	out PORTB, r19
3591:sendpack.S    **** 	out PORTB, r19
3592:sendpack.S    **** 	out PORTB, r18
 3593               	
 3594               		 // 0a
3595:sendpack.S    **** 	out PORTB, r19
3596:sendpack.S    **** 	out PORTB, r18
3597:sendpack.S    **** 	out PORTB, r18
3598:sendpack.S    **** 	out PORTB, r19
3599:sendpack.S    **** 	out PORTB, r19
3600:sendpack.S    **** 	out PORTB, r18
3601:sendpack.S    **** 	out PORTB, r18
3602:sendpack.S    **** 	out PORTB, r19
3603:sendpack.S    **** 	out PORTB, r19
3604:sendpack.S    **** 	out PORTB, r18
3605:sendpack.S    **** 	out PORTB, r19
3606:sendpack.S    **** 	out PORTB, r18
3607:sendpack.S    **** 	out PORTB, r19
3608:sendpack.S    **** 	out PORTB, r18
3609:sendpack.S    **** 	out PORTB, r19
3610:sendpack.S    **** 	out PORTB, r18
 3611               	
 3612               		 // 00
GAS LISTING /tmp/ccOpXWZF.s 			page 73


3613:sendpack.S    **** 	out PORTB, r19
3614:sendpack.S    **** 	out PORTB, r18
3615:sendpack.S    **** 	out PORTB, r19
3616:sendpack.S    **** 	out PORTB, r18
3617:sendpack.S    **** 	out PORTB, r19
3618:sendpack.S    **** 	out PORTB, r18
3619:sendpack.S    **** 	out PORTB, r19
3620:sendpack.S    **** 	out PORTB, r18
3621:sendpack.S    **** 	out PORTB, r19
3622:sendpack.S    **** 	out PORTB, r18
3623:sendpack.S    **** 	out PORTB, r19
3624:sendpack.S    **** 	out PORTB, r18
3625:sendpack.S    **** 	out PORTB, r19
3626:sendpack.S    **** 	out PORTB, r18
3627:sendpack.S    **** 	out PORTB, r19
3628:sendpack.S    **** 	out PORTB, r18
 3629               	
 3630               		 // 00
3631:sendpack.S    **** 	out PORTB, r19
3632:sendpack.S    **** 	out PORTB, r18
3633:sendpack.S    **** 	out PORTB, r19
3634:sendpack.S    **** 	out PORTB, r18
3635:sendpack.S    **** 	out PORTB, r19
3636:sendpack.S    **** 	out PORTB, r18
3637:sendpack.S    **** 	out PORTB, r19
3638:sendpack.S    **** 	out PORTB, r18
3639:sendpack.S    **** 	out PORTB, r19
3640:sendpack.S    **** 	out PORTB, r18
3641:sendpack.S    **** 	out PORTB, r19
3642:sendpack.S    **** 	out PORTB, r18
3643:sendpack.S    **** 	out PORTB, r19
3644:sendpack.S    **** 	out PORTB, r18
3645:sendpack.S    **** 	out PORTB, r19
3646:sendpack.S    **** 	out PORTB, r18
 3647               	
 3648               		 // 00
3649:sendpack.S    **** 	out PORTB, r19
3650:sendpack.S    **** 	out PORTB, r18
3651:sendpack.S    **** 	out PORTB, r19
3652:sendpack.S    **** 	out PORTB, r18
3653:sendpack.S    **** 	out PORTB, r19
3654:sendpack.S    **** 	out PORTB, r18
3655:sendpack.S    **** 	out PORTB, r19
3656:sendpack.S    **** 	out PORTB, r18
3657:sendpack.S    **** 	out PORTB, r19
3658:sendpack.S    **** 	out PORTB, r18
3659:sendpack.S    **** 	out PORTB, r19
3660:sendpack.S    **** 	out PORTB, r18
3661:sendpack.S    **** 	out PORTB, r19
3662:sendpack.S    **** 	out PORTB, r18
3663:sendpack.S    **** 	out PORTB, r19
3664:sendpack.S    **** 	out PORTB, r18
 3665               	
 3666               		 // 00
3667:sendpack.S    **** 	out PORTB, r19
3668:sendpack.S    **** 	out PORTB, r18
3669:sendpack.S    **** 	out PORTB, r19
GAS LISTING /tmp/ccOpXWZF.s 			page 74


3670:sendpack.S    **** 	out PORTB, r18
3671:sendpack.S    **** 	out PORTB, r19
3672:sendpack.S    **** 	out PORTB, r18
3673:sendpack.S    **** 	out PORTB, r19
3674:sendpack.S    **** 	out PORTB, r18
3675:sendpack.S    **** 	out PORTB, r19
3676:sendpack.S    **** 	out PORTB, r18
3677:sendpack.S    **** 	out PORTB, r19
3678:sendpack.S    **** 	out PORTB, r18
3679:sendpack.S    **** 	out PORTB, r19
3680:sendpack.S    **** 	out PORTB, r18
3681:sendpack.S    **** 	out PORTB, r19
3682:sendpack.S    **** 	out PORTB, r18
 3683               	
 3684               		 // 00
3685:sendpack.S    **** 	out PORTB, r19
3686:sendpack.S    **** 	out PORTB, r18
3687:sendpack.S    **** 	out PORTB, r19
3688:sendpack.S    **** 	out PORTB, r18
3689:sendpack.S    **** 	out PORTB, r19
3690:sendpack.S    **** 	out PORTB, r18
3691:sendpack.S    **** 	out PORTB, r19
3692:sendpack.S    **** 	out PORTB, r18
3693:sendpack.S    **** 	out PORTB, r19
3694:sendpack.S    **** 	out PORTB, r18
3695:sendpack.S    **** 	out PORTB, r19
3696:sendpack.S    **** 	out PORTB, r18
3697:sendpack.S    **** 	out PORTB, r19
3698:sendpack.S    **** 	out PORTB, r18
3699:sendpack.S    **** 	out PORTB, r19
3700:sendpack.S    **** 	out PORTB, r18
 3701               	
 3702               		 // 00
3703:sendpack.S    **** 	out PORTB, r19
3704:sendpack.S    **** 	out PORTB, r18
3705:sendpack.S    **** 	out PORTB, r19
3706:sendpack.S    **** 	out PORTB, r18
3707:sendpack.S    **** 	out PORTB, r19
3708:sendpack.S    **** 	out PORTB, r18
3709:sendpack.S    **** 	out PORTB, r19
3710:sendpack.S    **** 	out PORTB, r18
3711:sendpack.S    **** 	out PORTB, r19
3712:sendpack.S    **** 	out PORTB, r18
3713:sendpack.S    **** 	out PORTB, r19
3714:sendpack.S    **** 	out PORTB, r18
3715:sendpack.S    **** 	out PORTB, r19
3716:sendpack.S    **** 	out PORTB, r18
3717:sendpack.S    **** 	out PORTB, r19
3718:sendpack.S    **** 	out PORTB, r18
 3719               	
 3720               		 // 00
3721:sendpack.S    **** 	out PORTB, r19
3722:sendpack.S    **** 	out PORTB, r18
3723:sendpack.S    **** 	out PORTB, r19
3724:sendpack.S    **** 	out PORTB, r18
3725:sendpack.S    **** 	out PORTB, r19
3726:sendpack.S    **** 	out PORTB, r18
GAS LISTING /tmp/ccOpXWZF.s 			page 75


3727:sendpack.S    **** 	out PORTB, r19
3728:sendpack.S    **** 	out PORTB, r18
3729:sendpack.S    **** 	out PORTB, r19
3730:sendpack.S    **** 	out PORTB, r18
3731:sendpack.S    **** 	out PORTB, r19
3732:sendpack.S    **** 	out PORTB, r18
3733:sendpack.S    **** 	out PORTB, r19
3734:sendpack.S    **** 	out PORTB, r18
3735:sendpack.S    **** 	out PORTB, r19
3736:sendpack.S    **** 	out PORTB, r18
 3737               	
 3738               		 // 00
3739:sendpack.S    **** 	out PORTB, r19
3740:sendpack.S    **** 	out PORTB, r18
3741:sendpack.S    **** 	out PORTB, r19
3742:sendpack.S    **** 	out PORTB, r18
3743:sendpack.S    **** 	out PORTB, r19
3744:sendpack.S    **** 	out PORTB, r18
3745:sendpack.S    **** 	out PORTB, r19
3746:sendpack.S    **** 	out PORTB, r18
3747:sendpack.S    **** 	out PORTB, r19
3748:sendpack.S    **** 	out PORTB, r18
3749:sendpack.S    **** 	out PORTB, r19
3750:sendpack.S    **** 	out PORTB, r18
3751:sendpack.S    **** 	out PORTB, r19
3752:sendpack.S    **** 	out PORTB, r18
3753:sendpack.S    **** 	out PORTB, r19
3754:sendpack.S    **** 	out PORTB, r18
 3755               	
 3756               		 // 00
3757:sendpack.S    **** 	out PORTB, r19
3758:sendpack.S    **** 	out PORTB, r18
3759:sendpack.S    **** 	out PORTB, r19
3760:sendpack.S    **** 	out PORTB, r18
3761:sendpack.S    **** 	out PORTB, r19
3762:sendpack.S    **** 	out PORTB, r18
3763:sendpack.S    **** 	out PORTB, r19
3764:sendpack.S    **** 	out PORTB, r18
3765:sendpack.S    **** 	out PORTB, r19
3766:sendpack.S    **** 	out PORTB, r18
3767:sendpack.S    **** 	out PORTB, r19
3768:sendpack.S    **** 	out PORTB, r18
3769:sendpack.S    **** 	out PORTB, r19
3770:sendpack.S    **** 	out PORTB, r18
3771:sendpack.S    **** 	out PORTB, r19
3772:sendpack.S    **** 	out PORTB, r18
 3773               	
 3774               		 // 00
3775:sendpack.S    **** 	out PORTB, r19
3776:sendpack.S    **** 	out PORTB, r18
3777:sendpack.S    **** 	out PORTB, r19
3778:sendpack.S    **** 	out PORTB, r18
3779:sendpack.S    **** 	out PORTB, r19
3780:sendpack.S    **** 	out PORTB, r18
3781:sendpack.S    **** 	out PORTB, r19
3782:sendpack.S    **** 	out PORTB, r18
3783:sendpack.S    **** 	out PORTB, r19
GAS LISTING /tmp/ccOpXWZF.s 			page 76


3784:sendpack.S    **** 	out PORTB, r18
3785:sendpack.S    **** 	out PORTB, r19
3786:sendpack.S    **** 	out PORTB, r18
3787:sendpack.S    **** 	out PORTB, r19
3788:sendpack.S    **** 	out PORTB, r18
3789:sendpack.S    **** 	out PORTB, r19
3790:sendpack.S    **** 	out PORTB, r18
 3791               	
 3792               		 // 00
3793:sendpack.S    **** 	out PORTB, r19
3794:sendpack.S    **** 	out PORTB, r18
3795:sendpack.S    **** 	out PORTB, r19
3796:sendpack.S    **** 	out PORTB, r18
3797:sendpack.S    **** 	out PORTB, r19
3798:sendpack.S    **** 	out PORTB, r18
3799:sendpack.S    **** 	out PORTB, r19
3800:sendpack.S    **** 	out PORTB, r18
3801:sendpack.S    **** 	out PORTB, r19
3802:sendpack.S    **** 	out PORTB, r18
3803:sendpack.S    **** 	out PORTB, r19
3804:sendpack.S    **** 	out PORTB, r18
3805:sendpack.S    **** 	out PORTB, r19
3806:sendpack.S    **** 	out PORTB, r18
3807:sendpack.S    **** 	out PORTB, r19
3808:sendpack.S    **** 	out PORTB, r18
 3809               	
 3810               		 // 00
3811:sendpack.S    **** 	out PORTB, r19
3812:sendpack.S    **** 	out PORTB, r18
3813:sendpack.S    **** 	out PORTB, r19
3814:sendpack.S    **** 	out PORTB, r18
3815:sendpack.S    **** 	out PORTB, r19
3816:sendpack.S    **** 	out PORTB, r18
3817:sendpack.S    **** 	out PORTB, r19
3818:sendpack.S    **** 	out PORTB, r18
3819:sendpack.S    **** 	out PORTB, r19
3820:sendpack.S    **** 	out PORTB, r18
3821:sendpack.S    **** 	out PORTB, r19
3822:sendpack.S    **** 	out PORTB, r18
3823:sendpack.S    **** 	out PORTB, r19
3824:sendpack.S    **** 	out PORTB, r18
3825:sendpack.S    **** 	out PORTB, r19
3826:sendpack.S    **** 	out PORTB, r18
 3827               	
 3828               		 // 00
3829:sendpack.S    **** 	out PORTB, r19
3830:sendpack.S    **** 	out PORTB, r18
3831:sendpack.S    **** 	out PORTB, r19
3832:sendpack.S    **** 	out PORTB, r18
3833:sendpack.S    **** 	out PORTB, r19
3834:sendpack.S    **** 	out PORTB, r18
3835:sendpack.S    **** 	out PORTB, r19
3836:sendpack.S    **** 	out PORTB, r18
3837:sendpack.S    **** 	out PORTB, r19
3838:sendpack.S    **** 	out PORTB, r18
3839:sendpack.S    **** 	out PORTB, r19
3840:sendpack.S    **** 	out PORTB, r18
GAS LISTING /tmp/ccOpXWZF.s 			page 77


3841:sendpack.S    **** 	out PORTB, r19
3842:sendpack.S    **** 	out PORTB, r18
3843:sendpack.S    **** 	out PORTB, r19
3844:sendpack.S    **** 	out PORTB, r18
 3845               	
 3846               		 // 00
3847:sendpack.S    **** 	out PORTB, r19
3848:sendpack.S    **** 	out PORTB, r18
3849:sendpack.S    **** 	out PORTB, r19
3850:sendpack.S    **** 	out PORTB, r18
3851:sendpack.S    **** 	out PORTB, r19
3852:sendpack.S    **** 	out PORTB, r18
3853:sendpack.S    **** 	out PORTB, r19
3854:sendpack.S    **** 	out PORTB, r18
3855:sendpack.S    **** 	out PORTB, r19
3856:sendpack.S    **** 	out PORTB, r18
3857:sendpack.S    **** 	out PORTB, r19
3858:sendpack.S    **** 	out PORTB, r18
3859:sendpack.S    **** 	out PORTB, r19
3860:sendpack.S    **** 	out PORTB, r18
3861:sendpack.S    **** 	out PORTB, r19
3862:sendpack.S    **** 	out PORTB, r18
 3863               	
 3864               		 // 00
3865:sendpack.S    **** 	out PORTB, r19
3866:sendpack.S    **** 	out PORTB, r18
3867:sendpack.S    **** 	out PORTB, r19
3868:sendpack.S    **** 	out PORTB, r18
3869:sendpack.S    **** 	out PORTB, r19
3870:sendpack.S    **** 	out PORTB, r18
3871:sendpack.S    **** 	out PORTB, r19
3872:sendpack.S    **** 	out PORTB, r18
3873:sendpack.S    **** 	out PORTB, r19
3874:sendpack.S    **** 	out PORTB, r18
3875:sendpack.S    **** 	out PORTB, r19
3876:sendpack.S    **** 	out PORTB, r18
3877:sendpack.S    **** 	out PORTB, r19
3878:sendpack.S    **** 	out PORTB, r18
3879:sendpack.S    **** 	out PORTB, r19
3880:sendpack.S    **** 	out PORTB, r18
 3881               	
 3882               		 // 00
3883:sendpack.S    **** 	out PORTB, r19
3884:sendpack.S    **** 	out PORTB, r18
3885:sendpack.S    **** 	out PORTB, r19
3886:sendpack.S    **** 	out PORTB, r18
3887:sendpack.S    **** 	out PORTB, r19
3888:sendpack.S    **** 	out PORTB, r18
3889:sendpack.S    **** 	out PORTB, r19
3890:sendpack.S    **** 	out PORTB, r18
3891:sendpack.S    **** 	out PORTB, r19
3892:sendpack.S    **** 	out PORTB, r18
3893:sendpack.S    **** 	out PORTB, r19
3894:sendpack.S    **** 	out PORTB, r18
3895:sendpack.S    **** 	out PORTB, r19
3896:sendpack.S    **** 	out PORTB, r18
3897:sendpack.S    **** 	out PORTB, r19
GAS LISTING /tmp/ccOpXWZF.s 			page 78


3898:sendpack.S    **** 	out PORTB, r18
 3899               	
 3900               		 // f2
3901:sendpack.S    **** 	out PORTB, r19
3902:sendpack.S    **** 	out PORTB, r18
3903:sendpack.S    **** 	out PORTB, r18
3904:sendpack.S    **** 	out PORTB, r19
3905:sendpack.S    **** 	out PORTB, r19
3906:sendpack.S    **** 	out PORTB, r18
3907:sendpack.S    **** 	out PORTB, r19
3908:sendpack.S    **** 	out PORTB, r18
3909:sendpack.S    **** 	out PORTB, r18
3910:sendpack.S    **** 	out PORTB, r19
3911:sendpack.S    **** 	out PORTB, r18
3912:sendpack.S    **** 	out PORTB, r19
3913:sendpack.S    **** 	out PORTB, r18
3914:sendpack.S    **** 	out PORTB, r19
3915:sendpack.S    **** 	out PORTB, r18
3916:sendpack.S    **** 	out PORTB, r19
 3917               	
 3918               		 // 2a
3919:sendpack.S    **** 	out PORTB, r19
3920:sendpack.S    **** 	out PORTB, r18
3921:sendpack.S    **** 	out PORTB, r18
3922:sendpack.S    **** 	out PORTB, r19
3923:sendpack.S    **** 	out PORTB, r19
3924:sendpack.S    **** 	out PORTB, r18
3925:sendpack.S    **** 	out PORTB, r18
3926:sendpack.S    **** 	out PORTB, r19
3927:sendpack.S    **** 	out PORTB, r19
3928:sendpack.S    **** 	out PORTB, r18
3929:sendpack.S    **** 	out PORTB, r18
3930:sendpack.S    **** 	out PORTB, r19
3931:sendpack.S    **** 	out PORTB, r19
3932:sendpack.S    **** 	out PORTB, r18
3933:sendpack.S    **** 	out PORTB, r19
3934:sendpack.S    **** 	out PORTB, r18
 3935               	
 3936               		 // fa
3937:sendpack.S    **** 	out PORTB, r19
3938:sendpack.S    **** 	out PORTB, r18
3939:sendpack.S    **** 	out PORTB, r18
3940:sendpack.S    **** 	out PORTB, r19
3941:sendpack.S    **** 	out PORTB, r19
3942:sendpack.S    **** 	out PORTB, r18
3943:sendpack.S    **** 	out PORTB, r18
3944:sendpack.S    **** 	out PORTB, r19
3945:sendpack.S    **** 	out PORTB, r18
3946:sendpack.S    **** 	out PORTB, r19
3947:sendpack.S    **** 	out PORTB, r18
3948:sendpack.S    **** 	out PORTB, r19
3949:sendpack.S    **** 	out PORTB, r18
3950:sendpack.S    **** 	out PORTB, r19
3951:sendpack.S    **** 	out PORTB, r18
3952:sendpack.S    **** 	out PORTB, r19
 3953               	
 3954               		 // 62
GAS LISTING /tmp/ccOpXWZF.s 			page 79


3955:sendpack.S    **** 	out PORTB, r19
3956:sendpack.S    **** 	out PORTB, r18
3957:sendpack.S    **** 	out PORTB, r18
3958:sendpack.S    **** 	out PORTB, r19
3959:sendpack.S    **** 	out PORTB, r19
3960:sendpack.S    **** 	out PORTB, r18
3961:sendpack.S    **** 	out PORTB, r19
3962:sendpack.S    **** 	out PORTB, r18
3963:sendpack.S    **** 	out PORTB, r19
3964:sendpack.S    **** 	out PORTB, r18
3965:sendpack.S    **** 	out PORTB, r18
3966:sendpack.S    **** 	out PORTB, r19
3967:sendpack.S    **** 	out PORTB, r18
3968:sendpack.S    **** 	out PORTB, r19
3969:sendpack.S    **** 	out PORTB, r19
3970:sendpack.S    **** 	out PORTB, r18
 3971               	
3972:sendpack.S    **** 	out PORTB, r20
3973:sendpack.S    **** 	ret
GAS LISTING /tmp/ccOpXWZF.s 			page 80


DEFINED SYMBOLS
          sendpack.S:10     .text:0000000000000000 SendAPacket
          sendpack.S:1332   .text:0000000000000912 SendBPacket
          sendpack.S:2654   .text:0000000000001224 SendCPacket

NO UNDEFINED SYMBOLS
